libqalculate.so.21 libqalculate21 #MINVER#
* Build-Depends-Package: libqalculate-dev
 _Z10aberration6Number@Base 3.2.0
 _Z10add_symbolRK13MathStructureRSt6vectorI8sym_descSaIS3_EE@Base 3.2.0
 _Z10add_symbolRK13MathStructureRSt6vectorIS_SaIS_EE@Base 3.2.0
 _Z10fileExistsNSt7__cxx1112basic_stringIcSt11char_traitsIcESaIcEEE@Base 3.2.0
 _Z10find_abs_xR13MathStructureRKS_PS1_i@Base 3.2.0
 _Z10has_prefixRK13MathStructure@Base 3.2.0
 _Z10isLeapYearl@Base 3.2.0
 _Z10lunarPhaseRK17QalculateDateTime@Base 3.2.0
 _Z10sign_placePNSt7__cxx1112basic_stringIcSt11char_traitsIcESaIcEEEj@Base 3.2.0
 _Z10sign_placePNSt7__cxx1112basic_stringIcSt11char_traitsIcESaIcEEEm@Base 3.2.0
 _Z10write_dataPvjjPNSt7__cxx1112basic_stringIcSt11char_traitsIcESaIcEEE@Base 3.2.0
 _Z10write_dataPvmmPNSt7__cxx1112basic_stringIcSt11char_traitsIcESaIcEEE@Base 3.2.0
 _Z11autoConvertRK13MathStructureRS_RK17EvaluationOptions@Base 3.2.0
 _Z11daysPerYearli@Base 3.2.0
 _Z11divide_in_zRK13MathStructureS1_RS_RKSt6vectorI8sym_descSaIS4_EEjRK17EvaluationOptions@Base 3.2.0
 _Z11divide_in_zRK13MathStructureS1_RS_RKSt6vectorI8sym_descSaIS4_EEmRK17EvaluationOptions@Base 3.2.0
 _Z11getLocalDirB5cxx11v@Base 3.2.0
 _Z11interpolateRK13MathStructureRK6NumberS1_RS_RK17EvaluationOptions@Base 3.2.0
 _Z11is_negationRK13MathStructureS1_@Base 3.2.0
 _Z11jd_to_fixed6Number@Base 3.2.0
 _Z11lunar_phase6Number@Base 3.2.0
 _Z11simplify_lnR13MathStructure@Base 3.2.0
 _Z11sortCompareRK13MathStructureS1_S1_RK12PrintOptions@Base 3.2.0
 _Z11sqrfree_yunRK13MathStructureS1_RS_RK17EvaluationOptions@Base 3.2.0
 _Z11testComplexP6NumberS0_@Base 3.2.0
 _Z12addablePowerRK13MathStructureRK17EvaluationOptions@Base 3.2.0
 _Z12chinese_zone6Number@Base 3.2.0
 _Z12cjdn_to_date6NumberRlS0_S0_14CalendarSystem@Base 3.2.0
 _Z12compare_nameRKNSt7__cxx1112basic_stringIcSt11char_traitsIcESaIcEEES6_RKjS8_i@Base 3.2.0
 _Z12compare_nameRKNSt7__cxx1112basic_stringIcSt11char_traitsIcESaIcEEES6_RKmS8_i@Base 3.2.0
 _Z12count_powersRK13MathStructure@Base 3.2.0
 _Z12csum_replaceR13MathStructureRKS_S2_jRK17EvaluationOptions@Base 3.2.0
 _Z12csum_replaceR13MathStructureRKS_S2_mRK17EvaluationOptions@Base 3.2.0
 _Z12dateTimeZoneRK17QalculateDateTimeb@Base 3.2.0
 _Z12dateTimeZonel@Base 3.2.0
 _Z12date_to_cjdnlll14CalendarSystem@Base 3.2.0
 _Z12daysPerMonthil@Base 3.2.0
 _Z12find_abs_sgnR13MathStructureRKS_@Base 3.2.0
 _Z12isUnit_multiRK13MathStructure@Base 3.2.0
 _Z12isx_deabsifyR13MathStructure@Base 3.2.0
 _Z12multiply_lcmRK13MathStructureRK6NumberRS_RK17EvaluationOptions@Base 3.2.0
 _Z12nth_new_moon6Number@Base 3.2.0
 _Z12short_kislev6Number@Base 3.2.0
 _Z12test_var_intRK13MathStructurePb@Base 3.2.0
 _Z12utf8_strdownPKci@Base 3.2.0
 _Z13calculate_argR13MathStructureRK17EvaluationOptions@Base 3.2.0
 _Z13contains_zeroRK13MathStructure@Base 3.2.0
 _Z13date_to_fixedlll14CalendarSystem@Base 3.2.0
 _Z13fix_intervalsR13MathStructureRK17EvaluationOptionsPblb@Base 3.2.0
 _Z13fixed_to_date6NumberRlS0_S0_14CalendarSystem@Base 3.2.0
 _Z13is_not_numberci@Base 3.2.0
 _Z13limit_inf_cmpRK13MathStructureS1_S1_@Base 3.2.0
 _Z13lunar_anomaly6Number@Base 3.2.0
 _Z13negate_structR13MathStructure@Base 3.2.0
 _Z13remove_blanksRNSt7__cxx1112basic_stringIcSt11char_traitsIcESaIcEEE@Base 3.2.0
 _Z13remove_nounitR13MathStructure@Base 3.2.0
 _Z13replace_abs_xR13MathStructureRKS_bPS1_i@Base 3.2.0
 _Z13solar_anomaly6Number@Base 3.2.0
 _Z13test_equationR13MathStructureRK17EvaluationOptionsRKS_S5_S5_S5_@Base 3.2.0
 _Z13trig_remove_iR13MathStructure@Base 3.2.0
 _Z13try_isolate_xR13MathStructureR17EvaluationOptionsRKS1_@Base 3.2.0
 _Z13unnegate_signR13MathStructure@Base 3.2.0
 _Z14calendarToDateR17QalculateDateTimelll14CalendarSystem@Base 3.2.0
 _Z14calender_to_idRKNSt7__cxx1112basic_stringIcSt11char_traitsIcESaIcEEE@Base 3.2.0
 _Z14compare_deleteR13MathStructureS0_RbS1_RK17EvaluationOptions@Base 3.2.0
 _Z14dateToCalendarRK17QalculateDateTimeRlS2_S2_14CalendarSystem@Base 3.2.0
 _Z14fix_n_multipleR13MathStructureRK17EvaluationOptionsS3_RKS_@Base 3.2.0
 _Z14gather_factorsRK13MathStructureS1_RS_S2_S2_b@Base 3.2.0
 _Z14getLocalTmpDirB5cxx11v@Base 3.2.0
 _Z14getOldLocalDirB5cxx11v@Base 3.2.0
 _Z14get_multiplierRK13MathStructureS1_RS_j@Base 3.2.0
 _Z14get_multiplierRK13MathStructureS1_RS_m@Base 3.2.0
 _Z14get_power_termRK13MathStructureS1_@Base 3.2.0
 _Z14integrate_infoRK13MathStructureS1_RS_S2_S2_bbb@Base 3.2.0
 _Z14locale_to_utf8PKc@Base 3.2.0
 _Z14newton_raphsonRK13MathStructureRS_S1_RK17EvaluationOptions@Base 3.2.0
 _Z14nextLeapSecondRK17QalculateDateTime@Base 3.2.0
 _Z14numberOfMonths14CalendarSystem@Base 3.2.0
 _Z14prevLeapSecondRK17QalculateDateTime@Base 3.2.0
 _Z14replace_diff_xR13MathStructureRKS_S2_@Base 3.2.0
 _Z14solarLongitudeRK17QalculateDateTime@Base 3.2.0
 _Z14solve_equationR13MathStructureRKS_S2_RK17EvaluationOptionsbS2_S2_S2_S2_@Base 3.2.0
 _Z14sqrfree_simpleRK13MathStructureS1_RS_RK17EvaluationOptions@Base 3.2.0
 _Z14test_sign_zeroRK13MathStructureS1_S1_RK17EvaluationOptions@Base 3.2.0
 _Z14unicode_lengthPKc@Base 3.2.0
 _Z14unicode_lengthRKNSt7__cxx1112basic_stringIcSt11char_traitsIcESaIcEEE@Base 3.2.0
 _Z15chineseStemNameB5cxx11l@Base 3.2.0
 _Z15chineseYearInfolRlS_S_S_@Base 3.2.0
 _Z15collect_symbolsRK13MathStructureRSt6vectorI8sym_descSaIS3_EE@Base 3.2.0
 _Z15collect_symbolsRK13MathStructureRSt6vectorIS_SaIS_EE@Base 3.2.0
 _Z15create_intervalR13MathStructureRKS_S2_@Base 3.2.0
 _Z15evalSortCompareRK13MathStructureS1_S1_b@Base 3.2.0
 _Z15flattenAdditionR13MathStructure@Base 3.2.0
 _Z15getLocalDataDirB5cxx11v@Base 3.2.0
 _Z15hebrew_new_year6Number@Base 3.2.0
 _Z15integer_contentRK13MathStructureR6Number@Base 3.2.0
 _Z15long_marheshvan6Number@Base 3.2.0
 _Z15lunar_longitude6Number@Base 3.2.0
 _Z15new_moon_before6Number@Base 3.2.0
 _Z15polynomial_smodRK13MathStructureRK6NumberRS_RK17EvaluationOptionsPS_j@Base 3.2.0
 _Z15polynomial_smodRK13MathStructureRK6NumberRS_RK17EvaluationOptionsPS_m@Base 3.2.0
 _Z15process_replaceR13MathStructureRKS_S2_j@Base 3.2.0
 _Z15process_replaceR13MathStructureRKS_S2_m@Base 3.2.0
 _Z15remove_rad_unitR13MathStructureRK17EvaluationOptions@Base 3.2.0
 _Z15remove_zero_mulR13MathStructure@Base 3.2.0
 _Z15set_uncertaintyR13MathStructureS0_RK17EvaluationOptionsb@Base 3.2.0
 _Z15solar_longitude6Number@Base 3.2.0
 _Z15solve_intervalsR13MathStructureRK17EvaluationOptionsS3_@Base 3.2.0
 _Z15testComplexZeroPK6NumberS1_@Base 3.2.0
 _Z15transform_abslnR13MathStructureibRKS_RK17EvaluationOptions@Base 3.2.0
 _Z16contains_complexRK13MathStructure@Base 3.2.0
 _Z16coptic_leap_yearl@Base 3.2.0
 _Z16countLeapSecondsRK17QalculateDateTimeS1_@Base 3.2.0
 _Z16dos_count_pointsRK13MathStructureb@Base 3.2.0
 _Z16equalsIgnoreCaseRKNSt7__cxx1112basic_stringIcSt11char_traitsIcESaIcEEEPKc@Base 3.2.0
 _Z16equalsIgnoreCaseRKNSt7__cxx1112basic_stringIcSt11char_traitsIcESaIcEEES6_@Base 3.2.0
 _Z16equation_of_time6Number@Base 3.2.0
 _Z16format_and_printB5cxx11RK13MathStructure@Base 3.2.0
 _Z16get_first_symbolRK13MathStructureRS_@Base 3.2.0
 _Z16get_symbol_statsRK13MathStructureS1_RSt6vectorI8sym_descSaIS3_EE@Base 3.2.0
 _Z16hebrew_leap_year6Number@Base 3.2.0
 _Z16is_unit_multiexpRK13MathStructure@Base 3.2.0
 _Z16julian_centuries6Number@Base 3.2.0
 _Z16julian_leap_yearl@Base 3.2.0
 _Z16locale_from_utf8PKc@Base 3.2.0
 _Z16lunar_elongation6Number@Base 3.2.0
 _Z16midday_in_tehran6Number@Base 3.2.0
 _Z16permutation_signIN9__gnu_cxx17__normal_iteratorIPjSt6vectorIjSaIjEEEEEiT_S7_@Base 3.2.0
 _Z16permutation_signIN9__gnu_cxx17__normal_iteratorIPmSt6vectorImSaImEEEEEiT_S7_@Base 3.2.0
 _Z16recursiveMakeDirNSt7__cxx1112basic_stringIcSt11char_traitsIcESaIcEEE@Base 3.2.0
 _Z16remove_multi_oneR13MathStructure@Base 3.2.0
 _Z16solve_intervals2R13MathStructureSt6vectorIP13KnownVariableSaIS3_EERK17EvaluationOptions@Base 3.2.0
 _Z16test_comparisonsRK13MathStructureRS_S1_RK17EvaluationOptionsb@Base 3.2.0
 _Z16test_dissolve_cuR13MathStructureP4UnitbPbbRK17EvaluationOptionsP6Prefix@Base 3.2.0
 _Z16test_non_integerRK13MathStructureRK17EvaluationOptions@Base 3.2.0
 _Z17chineseBranchNameB5cxx11l@Base 3.2.0
 _Z17contains_diff_forRK13MathStructureS1_@Base 3.2.0
 _Z17determinant_minorRK13MathStructureRS_RK17EvaluationOptions@Base 3.2.0
 _Z17do_simplificationR13MathStructureRK17EvaluationOptionsbbbbbi@Base 3.2.0
 _Z17gatherInformationRK13MathStructureRSt6vectorIP4UnitSaIS4_EERS2_IP9AliasUnitSaIS9_EEb@Base 3.2.0
 _Z17getPackageDataDirB5cxx11v@Base 3.2.0
 _Z17get_out_of_negateR13MathStructurePi@Base 3.2.0
 _Z17midnight_in_china6Number@Base 3.2.0
 _Z17remove_angle_unitR13MathStructureP4Unit@Base 3.2.0
 _Z17remove_blank_endsRNSt7__cxx1112basic_stringIcSt11char_traitsIcESaIcEEE@Base 3.2.0
 _Z17replace_intervalsR13MathStructure@Base 3.2.0
 _Z17simplify_constantR13MathStructureRKS_S2_S2_bbb@Base 3.2.0
 _Z17split_unit_powersR13MathStructure@Base 3.2.0
 _Z17sync_find_cos_sinRK13MathStructureS1_RbS2_b@Base 3.2.0
 _Z18check_denominatorsRK13MathStructureS1_S1_RK17EvaluationOptions@Base 3.2.0
 _Z18contains_undefinedR13MathStructureRK17EvaluationOptionsbRKS_S5_@Base 3.2.0
 _Z18contains_zero_unitRK13MathStructure@Base 3.2.0
 _Z18default_angle_unitRK17EvaluationOptions@Base 3.2.0
 _Z18factorize_variableR13MathStructureRKS_b@Base 3.2.0
 _Z18findNextLunarPhaseRK17QalculateDateTime6Number@Base 3.2.0
 _Z18integrate_functionR13MathStructureRKS_RK17EvaluationOptionsS2_S2_S2_S2_ibiPSt6vectorIPS_SaIS7_EE@Base 3.2.0
 _Z18is_limit_neg_powerRK13MathStructureS1_b@Base 3.2.0
 _Z18remove_nonzero_mulR13MathStructureRKS_RK17EvaluationOptions@Base 3.2.0
 _Z18remove_parenthesisRNSt7__cxx1112basic_stringIcSt11char_traitsIcESaIcEEE@Base 3.2.0
 _Z18replace_f_intervalR13MathStructure@Base 3.2.0
 _Z18replace_f_intervalR13MathStructureRK17EvaluationOptions@Base 3.2.0
 _Z18separate_unit_varsR13MathStructureRK17EvaluationOptionsbb@Base 3.2.0
 _Z18simplify_functionsR13MathStructureRK17EvaluationOptionsS3_RKS_@Base 3.2.0
 _Z18text_length_is_oneRKNSt7__cxx1112basic_stringIcSt11char_traitsIcESaIcEEE@Base 3.2.0
 _Z19calculate_limit_subR13MathStructureRKS_S2_RK17EvaluationOptionsiP6Numberibb@Base 3.2.0
 _Z19convert_approximateR13MathStructureP4UnitRK17EvaluationOptionsPSt6vectorIP13KnownVariableSaIS8_EEPS6_IS_SaIS_EEPS6_IS2_SaIS2_EEb@Base 3.2.0
 _Z19convert_approximateR13MathStructureS_RK17EvaluationOptionsPSt6vectorIP13KnownVariableSaIS6_EEPS4_IS_SaIS_EEPS4_IP4UnitSaISE_EEb@Base 3.2.0
 _Z19days_in_hebrew_year6Number@Base 3.2.0
 _Z19factorize_variablesR13MathStructureRK17EvaluationOptions@Base 3.2.0
 _Z19find_ending_bracketRKNSt7__cxx1112basic_stringIcSt11char_traitsIcESaIcEEEjPi@Base 3.2.0
 _Z19find_ending_bracketRKNSt7__cxx1112basic_stringIcSt11char_traitsIcESaIcEEEmPi@Base 3.2.0
 _Z19getPackageLocaleDirB5cxx11v@Base 3.2.0
 _Z19gregorian_leap_yearl@Base 3.2.0
 _Z19is_real_angle_valueRK13MathStructure@Base 3.2.0
 _Z19local_from_apparent6NumberS_@Base 3.2.0
 _Z19replace_intervals_fR13MathStructure@Base 3.2.0
 _Z19standard_from_local6NumberS_S_@Base 3.2.0
 _Z19unnegate_multiplierR13MathStructureRK12PrintOptions@Base 3.2.0
 _Z19zone_from_longitude6Number@Base 3.2.0
 _Z20compare_name_no_caseRKNSt7__cxx1112basic_stringIcSt11char_traitsIcESaIcEEES6_RKjS8_i@Base 3.2.0
 _Z20compare_name_no_caseRKNSt7__cxx1112basic_stringIcSt11char_traitsIcESaIcEEES6_RKmS8_i@Base 3.2.0
 _Z20containsComplexUnitsRK13MathStructure@Base 3.2.0
 _Z20contains_ignore_diffRK13MathStructureS1_S1_@Base 3.2.0
 _Z20contains_not_nonzeroR13MathStructure@Base 3.2.0
 _Z20ephemeris_correction6Number@Base 3.2.0
 _Z20find_interval_zeroesRK13MathStructureRS_S1_RK6NumberRK17EvaluationOptionsiS5_iii@Base 3.2.0
 _Z20format_number_stringNSt7__cxx1112basic_stringIcSt11char_traitsIcESaIcEEEi11BaseDisplaybbRK12PrintOptions@Base 3.2.0
 _Z20mean_lunar_longitude6Number@Base 3.2.0
 _Z20new_moon_at_or_after6Number@Base 3.2.0
 _Z20remove_add_zero_unitR13MathStructure@Base 3.2.0
 _Z20replace_equal_limitsR13MathStructureRKS_S2_RK17EvaluationOptionsib@Base 3.2.0
 _Z20universal_from_local6NumberS_@Base 3.2.0
 _Z20use_prefix_with_unitP4UnitRK12PrintOptions@Base 3.2.0
 _Z20use_prefix_with_unitRK13MathStructureRK12PrintOptions@Base 3.2.0
 _Z21calculate_uncertaintyR13MathStructureRK17EvaluationOptionsRb@Base 3.2.0
 _Z21checkAvailableVersionPKcS0_PNSt7__cxx1112basic_stringIcSt11char_traitsIcESaIcEEEi@Base 3.2.0
 _Z21clean_multiplicationsR13MathStructure@Base 3.2.0
 _Z21combination_factorizeR13MathStructure@Base 3.2.0
 _Z21contains_interval_varRK13MathStructurebbbib@Base 3.2.0
 _Z21displays_number_exact6NumberRK12PrintOptionsP13MathStructure@Base 3.2.0
 _Z21eval_comparison_sidesR13MathStructureRK17EvaluationOptions@Base 3.2.0
 _Z21fix_interval_variableP13KnownVariableR13MathStructure@Base 3.2.0
 _Z21flattenMultiplicationR13MathStructure@Base 3.2.0
 _Z21is_number_angle_valueRK13MathStructureb@Base 3.2.0
 _Z21numerical_integrationR13MathStructureRKS_RK17EvaluationOptionsRK6NumberS8_i@Base 3.2.0
 _Z21replace_equal_limits2R13MathStructureRKS_S2_RK17EvaluationOptionsib@Base 3.2.0
 _Z21replace_equal_limits3R13MathStructureRKS_S2_RK17EvaluationOptionsib@Base 3.2.0
 _Z21solar_longitude_after6NumberS_@Base 3.2.0
 _Z21sqrfree_differentiateRK13MathStructureS1_RS_RK17EvaluationOptions@Base 3.2.0
 _Z21test_absln_comp_cmplxRK13MathStructure@Base 3.2.0
 _Z21var_contains_intervalRK13MathStructure@Base 3.2.0
 _Z22chineseCycleYearToYearll@Base 3.2.0
 _Z22findNextSolarLongitudeRK17QalculateDateTime6Number@Base 3.2.0
 _Z22hebrew_sabbatical_year6Number@Base 3.2.0
 _Z22is_plus_minus_infinityRK13MathStructure@Base 3.2.0
 _Z22process_matrix_replaceR13MathStructureRKS_S2_jj@Base 3.2.0
 _Z22process_matrix_replaceR13MathStructureRKS_S2_mm@Base 3.2.0
 _Z22sync_approximate_unitsR13MathStructureRK17EvaluationOptionsPSt6vectorIP13KnownVariableSaIS6_EEPS4_IS_SaIS_EEb@Base 3.2.0
 _Z23chinese_new_moon_before6Number@Base 3.2.0
 _Z23chinese_new_year_in_sui6Number@Base 3.2.0
 _Z23find_interval_precisionRK13MathStructure@Base 3.2.0
 _Z23find_interval_variablesRK13MathStructureRSt6vectorIP13KnownVariableSaIS4_EERS2_IiSaIiEESA_@Base 3.2.0
 _Z23function_differentiableP12MathFunction@Base 3.2.0
 _Z23getGlobalDefinitionsDirB5cxx11v@Base 3.2.0
 _Z23is_comparison_structureRK13MathStructureS1_Pbb@Base 3.2.0
 _Z23is_infinite_angle_valueRK13MathStructure@Base 3.2.0
 _Z23limit_combine_divisionsR13MathStructureRKS_S2_@Base 3.2.0
 _Z23lunar_phase_at_or_after6NumberS_@Base 3.2.0
 _Z23parse_qalculate_versionNSt7__cxx1112basic_stringIcSt11char_traitsIcESaIcEEEPi@Base 3.2.0
 _Z23remove_duplicate_blanksRNSt7__cxx1112basic_stringIcSt11char_traitsIcESaIcEEE@Base 3.2.0
 _Z23standard_from_universal6NumberS_@Base 3.2.0
 _Z23universal_from_apparent6NumberS_@Base 3.2.0
 _Z23universal_from_standard6NumberS_@Base 3.2.0
 _Z24chinese_prior_leap_month6NumberS_@Base 3.2.0
 _Z24contains_unsolved_equalsRK13MathStructureS1_@Base 3.2.0
 _Z24current_major_solar_term6Number@Base 3.2.0
 _Z24current_minor_solar_term6Number@Base 3.2.0
 _Z24dynamical_from_universal6Number@Base 3.2.0
 _Z24expandVariablesWithUnitsR13MathStructureRK17EvaluationOptions@Base 3.2.0
 _Z24expand_partial_fractionsR13MathStructureRK17EvaluationOptionsb@Base 3.2.0
 _Z24factorize_fix_root_powerR13MathStructure@Base 3.2.0
 _Z24is_units_with_multiplierRK13MathStructure@Base 3.2.0
 _Z24last_day_of_hebrew_month6NumberS_@Base 3.2.0
 _Z24limit_combine_divisions2R13MathStructureRKS_S2_RK17EvaluationOptions@Base 3.2.0
 _Z24limit_contains_undefinedRK13MathStructure@Base 3.2.0
 _Z24polynomial_long_divisionRK13MathStructureS1_S1_RS_S2_RK17EvaluationOptionsbb@Base 3.2.0
 _Z24set_precision_of_numbersR13MathStructurei@Base 3.2.0
 _Z24solve_handle_logical_andR13MathStructurePPS_14ComparisonTypeRbRKS_@Base 3.2.0
 _Z24universal_from_dynamical6Number@Base 3.2.0
 _Z25factorize_find_multiplierRK13MathStructureRS_S2_b@Base 3.2.0
 _Z25find_interval_replace_varR13MathStructureS0_RK17EvaluationOptionsPS_PP8VariableRb@Base 3.2.0
 _Z25gregorian_date_differencellllll@Base 3.2.0
 _Z25gregorian_year_from_fixed6Number@Base 3.2.0
 _Z25last_month_of_hebrew_year6Number@Base 3.2.0
 _Z25replace_interval_unknownsR13MathStructure@Base 3.2.0
 _Z26contains_interval_variableRK13MathStructurei@Base 3.2.0
 _Z26fix_approximate_multiplierR13MathStructureRK12PrintOptionsPS_@Base 3.2.0
 _Z26fix_find_interval_variableR13MathStructure@Base 3.2.0
 _Z26has_noninteger_coefficientRK13MathStructure@Base 3.2.0
 _Z26insert_thousands_separatorRNSt7__cxx1112basic_stringIcSt11char_traitsIcESaIcEEERK12PrintOptions@Base 3.2.0
 _Z26polynomial_divide_integersRKSt6vectorI6NumberSaIS0_EES4_RS2_@Base 3.2.0
 _Z27chinese_no_major_solar_term6Number@Base 3.2.0
 _Z27compare_check_incompabilityP13MathStructure@Base 3.2.0
 _Z27contains_unsolved_integrateRK13MathStructurePS_PSt6vectorIS2_SaIS2_EE@Base 3.2.0
 _Z27fix_find_interval_variable2R13MathStructure@Base 3.2.0
 _Z27parse_and_precalculate_plotRNSt7__cxx1112basic_stringIcSt11char_traitsIcESaIcEEER13MathStructureRK12ParseOptionsR17EvaluationOptions@Base 3.2.0
 _Z28chineseStemBranchToCycleYearll@Base 3.2.0
 _Z28chinese_new_moon_on_or_after6Number@Base 3.2.0
 _Z28find_interval_replace_var_nrR13MathStructure@Base 3.2.0
 _Z28hebrew_calendar_elapsed_days6Number@Base 3.2.0
 _Z28major_solar_term_on_or_after6Number@Base 3.2.0
 _Z28minor_solar_term_on_or_after6Number@Base 3.2.0
 _Z28sync_trigonometric_functionsR13MathStructureRK17EvaluationOptionsRKS_b@Base 3.2.0
 _Z28test_dissolve_cu_approximateR13MathStructureP4UnitRK17EvaluationOptionsPSt6vectorIP13KnownVariableSaIS8_EEPS6_IS_SaIS_EEPS6_IS2_SaIS2_EEb@Base 3.2.0
 _Z28warn_about_assumed_not_valueRK13MathStructureS1_RK17EvaluationOptions@Base 3.2.0
 _Z29chinese_new_year_on_or_before6Number@Base 3.2.0
 _Z29convert_to_default_angle_unitR13MathStructureRK17EvaluationOptions@Base 3.2.0
 _Z29hebrew_year_length_correction6Number@Base 3.2.0
 _Z29persian_new_year_on_or_before6Number@Base 3.2.0
 _Z29variablesContainsComplexUnitsRK13MathStructureRK17EvaluationOptions@Base 3.2.0
 _Z30estimate_prior_solar_longitude6NumberS_@Base 3.2.0
 _Z30find_interval_replace_var_compR13MathStructureRK17EvaluationOptionsPP8Variable@Base 3.2.0
 _Z30remove_zerointerval_multiplierR13MathStructureRK17EvaluationOptions@Base 3.2.0
 _Z31has_predominately_negative_signRK13MathStructure@Base 3.2.0
 _Z31replace_variables_with_intervalR13MathStructureRK17EvaluationOptionsb@Base 3.2.0
 _Z31test_if_numerator_not_too_largeR6NumberS0_@Base 3.2.0
 _Z32contains_zerointerval_multiplierR13MathStructure@Base 3.2.0
 _Z32has_approximate_relation_to_baseP4Unitb@Base 3.2.0
 _Z32lcm_of_coefficients_denominatorsRK13MathStructureR6Number@Base 3.2.0
 _Z34calculate_differentiable_functionsR13MathStructureRK17EvaluationOptionsbb@Base 3.2.0
 _Z35chinese_solar_longitude_on_or_after6NumberS_@Base 3.2.0
 _Z36chinese_winter_solstice_on_or_before6Number@Base 3.2.0
 _Z36combination_factorize_is_complicatedR13MathStructure@Base 3.2.0
 _Z37calculate_nondifferentiable_functionsR13MathStructureRK17EvaluationOptionsbbi@Base 3.2.0
 _Z37contains_approximate_relation_to_baseRK13MathStructureb@Base 3.2.0
 _Z39warn_about_denominators_assumed_nonzeroRK13MathStructureRK17EvaluationOptions@Base 3.2.0
 _Z3d2sB5cxx11di@Base 3.2.0
 _Z3gcdii@Base 3.2.0
 _Z3i2sB5cxx11l@Base 3.2.0
 _Z3nowRiS_S_@Base 3.2.0
 _Z3p2sB5cxx11Pv@Base 3.2.0
 _Z3s2iPKc@Base 3.2.0
 _Z3s2iRKNSt7__cxx1112basic_stringIcSt11char_traitsIcESaIcEEE@Base 3.2.0
 _Z3s2pPKc@Base 3.2.0
 _Z3s2pRKNSt7__cxx1112basic_stringIcSt11char_traitsIcESaIcEEE@Base 3.2.0
 _Z40contains_duplicate_interval_variables_eqRK13MathStructureS1_RSt6vectorIP13KnownVariableSaIS4_EE@Base 3.2.0
 _Z43searchSubMultiplicationsForComplexRelationsP4UnitRK13MathStructure@Base 3.2.0
 _Z44warn_about_denominators_assumed_nonzero_llggRK13MathStructureS1_S1_RK17EvaluationOptions@Base 3.2.0
 _Z4b2oobb@Base 3.2.0
 _Z4b2tfbb@Base 3.2.0
 _Z4b2ynbb@Base 3.2.0
 _Z4gsubPKcS0_RNSt7__cxx1112basic_stringIcSt11char_traitsIcESaIcEEE@Base 3.2.0
 _Z4gsubRKNSt7__cxx1112basic_stringIcSt11char_traitsIcESaIcEEES6_RS4_@Base 3.2.0
 _Z4idm1RK13MathStructureRbS2_@Base 3.2.0
 _Z4idm2RK13MathStructureRbS2_R6Number@Base 3.2.0
 _Z4idm3R13MathStructureR6Numberb@Base 3.2.0
 _Z4premRK13MathStructureS1_S1_RS_RK17EvaluationOptionsb@Base 3.2.0
 _Z51warn_about_denominators_assumed_nonzero_or_positiveRK13MathStructureS1_RK17EvaluationOptions@Base 3.2.0
 _Z5add_CR13MathStructureRKS_S2_S2_S2_@Base 3.2.0
 _Z5idm1bRK13MathStructureRbS2_@Base 3.2.0
 _Z5idm2bRK13MathStructureR6Number@Base 3.2.0
 _Z5idm3bR13MathStructureR6Number@Base 3.2.0
 _Z5is_inPKcc@Base 3.2.0
 _Z5is_inRKNSt7__cxx1112basic_stringIcSt11char_traitsIcESaIcEEEc@Base 3.2.0
 _Z5op2ch13MathOperation@Base 3.2.0
 _Z6dsolveR13MathStructureRK17EvaluationOptionsRKS_S5_S5_@Base 3.2.0
 _Z6midday6NumberS_@Base 3.2.0
 _Z6reduceRK13MathStructureRS_R6NumberRK17EvaluationOptions@Base 3.2.0
 _Z6sr_gcdRK13MathStructureS1_RS_RKSt6vectorI8sym_descSaIS4_EEjRK17EvaluationOptions@Base 3.2.0
 _Z6sr_gcdRK13MathStructureS1_RS_RKSt6vectorI8sym_descSaIS4_EEmRK17EvaluationOptions@Base 3.2.0
 _Z6wrap_pRNSt7__cxx1112basic_stringIcSt11char_traitsIcESaIcEEE@Base 3.2.0
 _Z7cal_divR6Numberl@Base 3.2.0
 _Z7cal_divRK6NumberlRS_@Base 3.2.0
 _Z7cal_divRK6NumberlRS_S2_@Base 3.2.0
 _Z7factor1RK13MathStructureRS_S2_RK17EvaluationOptions@Base 3.2.0
 _Z7fix_eqsR13MathStructureRK17EvaluationOptions@Base 3.2.0
 _Z7makeDirNSt7__cxx1112basic_stringIcSt11char_traitsIcESaIcEEE@Base 3.2.0
 _Z7midday26NumberS_S_@Base 3.2.0
 _Z7namelenRK13MathStructureRK12PrintOptionsRK19InternalPrintStructPb@Base 3.2.0
 _Z7recfactP12__mpz_structll@Base 3.2.0
 _Z7sqrfreeR13MathStructureRK17EvaluationOptions@Base 3.2.0
 _Z7sqrfreeR13MathStructureRKSt6vectorIS_SaIS_EERK17EvaluationOptions@Base 3.2.0
 _Z8cal_poly6Numberjz@Base 3.2.0
 _Z8cal_poly6Numbermz@Base 3.2.0
 _Z8char2valRKcRKi@Base 3.2.0
 _Z8heur_gcdRK13MathStructureS1_RS_RK17EvaluationOptionsPS_S6_RSt6vectorI8sym_descSaIS8_EEj@Base 3.2.0
 _Z8heur_gcdRK13MathStructureS1_RS_RK17EvaluationOptionsPS_S6_RSt6vectorI8sym_descSaIS8_EEm@Base 3.2.0
 _Z8lcmcoeffRK13MathStructureRK6NumberRS2_@Base 3.2.0
 _Z8nutation6Number@Base 3.2.0
 _Z8printMPZB5cxx11P12__mpz_structibb@Base 3.2.0
 _Z8printMPZB5cxx11PK12__mpz_structibb@Base 3.2.0
 _Z8quotient6Numberl@Base 3.2.0
 _Z8quotientll@Base 3.2.0
 _Z8recfact2P12__mpz_structll@Base 3.2.0
 _Z8recfactmP12__mpz_structlll@Base 3.2.0
 _Z8sleep_msi@Base 3.2.0
 _Z8try_signR13MathStructureS0_RKS_S2_S2_RK17EvaluationOptionsPb@Base 3.2.0
 _Z9buildPathNSt7__cxx1112basic_stringIcSt11char_traitsIcESaIcEEES4_@Base 3.2.0
 _Z9buildPathNSt7__cxx1112basic_stringIcSt11char_traitsIcESaIcEEES4_S4_@Base 3.2.0
 _Z9buildPathNSt7__cxx1112basic_stringIcSt11char_traitsIcESaIcEEES4_S4_S4_@Base 3.2.0
 _Z9dirExistsNSt7__cxx1112basic_stringIcSt11char_traitsIcESaIcEEE@Base 3.2.0
 _Z9find_deqnR13MathStructure@Base 3.2.0
 _Z9fix_abs_xR13MathStructureRKS_@Base 3.2.0
 _Z9fix_sgn_xR13MathStructureRKS_RK17EvaluationOptions@Base 3.2.0
 _Z9get_powerRK13MathStructureS1_RS_@Base 3.2.0
 _Z9idm3_testRbRK13MathStructureRK6NumberbRK12PrintOptionsPS0_@Base 3.2.0
 _Z9is_not_inPKcc@Base 3.2.0
 _Z9is_not_inRKNSt7__cxx1112basic_stringIcSt11char_traitsIcESaIcEEEc@Base 3.2.0
 _Z9monthNameB5cxx11l14CalendarSystembb@Base 3.2.0
 _Z9moon_node6Number@Base 3.2.0
 _Z9move_filePKcS0_@Base 3.2.0
 _Z9obliquity6Number@Base 3.2.0
 _Z9reducableRK13MathStructureS1_R6Number@Base 3.2.0
 _Z9removeDirNSt7__cxx1112basic_stringIcSt11char_traitsIcESaIcEEE@Base 3.2.0
 _Z9sync_sineR13MathStructureRK17EvaluationOptionsRKS_bbS5_@Base 3.2.0
 _Z9test_evalR13MathStructureRK17EvaluationOptions@Base 3.2.0
 _Z9test_realR13MathStructureibRKS_RK17EvaluationOptions@Base 3.2.0
 _ZN10Calculator10abortPrintEv@Base 3.2.0
 _ZN10Calculator10addDataSetEP7DataSetbb@Base 3.2.0
 _ZN10Calculator10deleteNameENSt7__cxx1112basic_stringIcSt11char_traitsIcESaIcEEEP14ExpressionItem@Base 3.2.0
 _ZN10Calculator10getDataSetENSt7__cxx1112basic_stringIcSt11char_traitsIcESaIcEEE@Base 3.2.0
 _ZN10Calculator10getDataSetEj@Base 3.2.0
 _ZN10Calculator10getDataSetEm@Base 3.2.0
 _ZN10Calculator10getDegUnitEv@Base 3.2.0
 _ZN10Calculator10getGraUnitEv@Base 3.2.0
 _ZN10Calculator10getRadUnitEv@Base 3.2.0
 _ZN10Calculator10parseAddIdEP12MathFunctionRKNSt7__cxx1112basic_stringIcSt11char_traitsIcESaIcEEERK12ParseOptionsb@Base 3.2.0
 _ZN10Calculator10resetUnitsEv@Base 3.2.0
 _ZN10Calculator11addFunctionEP12MathFunctionbb@Base 3.2.0
 _ZN10Calculator11addMessagesEPSt6vectorI17CalculatorMessageSaIS1_EE@Base 3.2.0
 _ZN10Calculator11addVariableEP8Variablebb@Base 3.2.0
 _ZN10Calculator11getBestUnitEP4Unitbb@Base 3.2.0
 _ZN10Calculator11getFunctionENSt7__cxx1112basic_stringIcSt11char_traitsIcESaIcEEE@Base 3.2.0
 _ZN10Calculator11getVariableENSt7__cxx1112basic_stringIcSt11char_traitsIcESaIcEEE@Base 3.2.0
 _ZN10Calculator11gnuplotOpenEv@Base 3.2.0
 _ZN10Calculator11hasFunctionEP12MathFunction@Base 3.2.0
 _ZN10Calculator11hasGnomeVFSEv@Base 3.2.0
 _ZN10Calculator11hasVariableEP8Variable@Base 3.2.0
 _ZN10Calculator11nameChangedEP14ExpressionItemb@Base 3.2.0
 _ZN10Calculator11nextMessageEv@Base 3.2.0
 _ZN10Calculator11parseNumberEP13MathStructureNSt7__cxx1112basic_stringIcSt11char_traitsIcESaIcEEERK12ParseOptions@Base 3.2.0
 _ZN10Calculator11plotVectorsEP14PlotParametersRKSt6vectorI13MathStructureSaIS3_EES7_RS2_IP18PlotDataParametersSaIS9_EEbi@Base 3.2.0
 _ZN10Calculator11stopControlEv@Base 3.2.0
 _ZN10Calculator11unsetLocaleEv@Base 3.2.0
 _ZN10Calculator12calculateRPNE13MathOperationRK17EvaluationOptionsP13MathStructure@Base 3.2.0
 _ZN10Calculator12calculateRPNE13MathOperationiRK17EvaluationOptionsP13MathStructure@Base 3.2.0
 _ZN10Calculator12calculateRPNENSt7__cxx1112basic_stringIcSt11char_traitsIcESaIcEEEijiRK17EvaluationOptionsP13MathStructureSA_bi@Base 3.2.0
 _ZN10Calculator12calculateRPNENSt7__cxx1112basic_stringIcSt11char_traitsIcESaIcEEEimiRK17EvaluationOptionsP13MathStructureSA_bi@Base 3.2.0
 _ZN10Calculator12calculateRPNEP12MathFunctionRK17EvaluationOptionsP13MathStructure@Base 3.2.0
 _ZN10Calculator12calculateRPNEP12MathFunctioniRK17EvaluationOptionsP13MathStructure@Base 3.2.0
 _ZN10Calculator12calculateRPNEP13MathStructureijiRK17EvaluationOptionsi@Base 3.2.0
 _ZN10Calculator12calculateRPNEP13MathStructureimiRK17EvaluationOptionsi@Base 3.2.0
 _ZN10Calculator12clearBuffersEv@Base 3.2.0
 _ZN10Calculator12closeGnuplotEv@Base 3.2.0
 _ZN10Calculator12delPrefixUFVEP6Prefix@Base 3.2.0
 _ZN10Calculator12restoreStateEv@Base 3.2.0
 _ZN10Calculator12saveDataSetsEPKcb@Base 3.2.0
 _ZN10Calculator12savePrefixesEPKcb@Base 3.2.0
 _ZN10Calculator12setPrecisionEi@Base 3.2.0
 _ZN10Calculator12startControlEi@Base 3.2.0
 _ZN10Calculator12stillHasUnitEP4Unit@Base 3.2.0
 _ZN10Calculator13RPNStackEnterENSt7__cxx1112basic_stringIcSt11char_traitsIcESaIcEEERK17EvaluationOptionsP13MathStructureSA_b@Base 3.2.0
 _ZN10Calculator13RPNStackEnterENSt7__cxx1112basic_stringIcSt11char_traitsIcESaIcEEEiRK17EvaluationOptionsP13MathStructureSA_b@Base 3.2.0
 _ZN10Calculator13RPNStackEnterEP13MathStructurebRK17EvaluationOptions@Base 3.2.0
 _ZN10Calculator13RPNStackEnterEP13MathStructureiRK17EvaluationOptions@Base 3.2.0
 _ZN10Calculator13cleanMessagesERK13MathStructurej@Base 3.2.0
 _ZN10Calculator13cleanMessagesERK13MathStructurem@Base 3.2.0
 _ZN10Calculator13clearRPNStackEv@Base 3.2.0
 _ZN10Calculator13getActiveUnitENSt7__cxx1112basic_stringIcSt11char_traitsIcESaIcEEE@Base 3.2.0
 _ZN10Calculator13invokeGnuplotENSt7__cxx1112basic_stringIcSt11char_traitsIcESaIcEEES5_b@Base 3.2.0
 _ZN10Calculator13saveFunctionsEPKcb@Base 3.2.0
 _ZN10Calculator13saveVariablesEPKcb@Base 3.2.0
 _ZN10Calculator13testConditionENSt7__cxx1112basic_stringIcSt11char_traitsIcESaIcEEE@Base 3.2.0
 _ZN10Calculator13unitNameTakenENSt7__cxx1112basic_stringIcSt11char_traitsIcESaIcEEEP4Unit@Base 3.2.0
 _ZN10Calculator14convertTimeOutENSt7__cxx1112basic_stringIcSt11char_traitsIcESaIcEEEP4UnitS7_iRK17EvaluationOptions@Base 3.2.0
 _ZN10Calculator14deleteUnitNameENSt7__cxx1112basic_stringIcSt11char_traitsIcESaIcEEEP4Unit@Base 3.2.0
 _ZN10Calculator14getOptimalUnitEP4Unitbb@Base 3.2.0
 _ZN10Calculator14parseOperatorsEP13MathStructureNSt7__cxx1112basic_stringIcSt11char_traitsIcESaIcEEERK12ParseOptions@Base 3.2.0
 _ZN10Calculator14resetFunctionsEv@Base 3.2.0
 _ZN10Calculator14resetVariablesEv@Base 3.2.0
 _ZN10Calculator14setRPNRegisterEjNSt7__cxx1112basic_stringIcSt11char_traitsIcESaIcEEERK17EvaluationOptionsP13MathStructureSA_b@Base 3.2.0
 _ZN10Calculator14setRPNRegisterEjNSt7__cxx1112basic_stringIcSt11char_traitsIcESaIcEEEiRK17EvaluationOptionsP13MathStructureSA_b@Base 3.2.0
 _ZN10Calculator14setRPNRegisterEjP13MathStructurebRK17EvaluationOptions@Base 3.2.0
 _ZN10Calculator14setRPNRegisterEjP13MathStructureiRK17EvaluationOptions@Base 3.2.0
 _ZN10Calculator14setRPNRegisterEmNSt7__cxx1112basic_stringIcSt11char_traitsIcESaIcEEERK17EvaluationOptionsP13MathStructureSA_b@Base 3.2.0
 _ZN10Calculator14setRPNRegisterEmNSt7__cxx1112basic_stringIcSt11char_traitsIcESaIcEEEiRK17EvaluationOptionsP13MathStructureSA_b@Base 3.2.0
 _ZN10Calculator14setRPNRegisterEmP13MathStructurebRK17EvaluationOptions@Base 3.2.0
 _ZN10Calculator14setRPNRegisterEmP13MathStructureiRK17EvaluationOptions@Base 3.2.0
 _ZN10Calculator15addBuiltinUnitsEv@Base 3.2.0
 _ZN10Calculator15getIgnoreLocaleEv@Base 3.2.0
 _ZN10Calculator15loadDefinitionsEPKcb@Base 3.2.0
 _ZN10Calculator15loadGlobalUnitsEv@Base 3.2.0
 _ZN10Calculator15moveRPNRegisterEjj@Base 3.2.0
 _ZN10Calculator15moveRPNRegisterEmm@Base 3.2.0
 _ZN10Calculator15printingAbortedEv@Base 3.2.0
 _ZN10Calculator15saveDataObjectsEv@Base 3.2.0
 _ZN10Calculator15saveDefinitionsEv@Base 3.2.0
 _ZN10Calculator15setIgnoreLocaleEv@Base 3.2.0
 _ZN10Calculator15unitNameChangedEP4Unitb@Base 3.2.0
 _ZN10Calculator15unitNameIsValidEPKc@Base 3.2.0
 _ZN10Calculator15unitNameIsValidEPKcPib@Base 3.2.0
 _ZN10Calculator15unitNameIsValidERKNSt7__cxx1112basic_stringIcSt11char_traitsIcESaIcEEE@Base 3.2.0
 _ZN10Calculator15unitNameIsValidERKNSt7__cxx1112basic_stringIcSt11char_traitsIcESaIcEEEPib@Base 3.2.0
 _ZN10Calculator15useDecimalCommaEv@Base 3.2.0
 _ZN10Calculator15useDecimalPointEb@Base 3.2.0
 _ZN10Calculator16findMatchingUnitERK13MathStructure@Base 3.2.0
 _ZN10Calculator16getCompositeUnitENSt7__cxx1112basic_stringIcSt11char_traitsIcESaIcEEE@Base 3.2.0
 _ZN10Calculator16getLocalCurrencyEv@Base 3.2.0
 _ZN10Calculator16parseAddIdAppendEP12MathFunctionRK13MathStructureRKNSt7__cxx1112basic_stringIcSt11char_traitsIcESaIcEEERK12ParseOptionsb@Base 3.2.0
 _ZN10Calculator16parseAddVectorIdERKNSt7__cxx1112basic_stringIcSt11char_traitsIcESaIcEEERK12ParseOptionsb@Base 3.2.0
 _ZN10Calculator16stillHasFunctionEP12MathFunction@Base 3.2.0
 _ZN10Calculator16stillHasVariableEP8Variable@Base 3.2.0
 _ZN10Calculator16stopPrintControlEv@Base 3.2.0
 _ZN10Calculator16terminateThreadsEv@Base 3.2.0
 _ZN10Calculator17addExpressionItemEP14ExpressionItemb@Base 3.2.0
 _ZN10Calculator17calculateAndPrintENSt7__cxx1112basic_stringIcSt11char_traitsIcESaIcEEEiRK17EvaluationOptionsRK12PrintOptions@Base 3.2.0
 _ZN10Calculator17convertToBestUnitERK13MathStructureRK17EvaluationOptionsb@Base 3.2.0
 _ZN10Calculator17deleteRPNRegisterEj@Base 3.2.0
 _ZN10Calculator17deleteRPNRegisterEm@Base 3.2.0
 _ZN10Calculator17functionNameTakenENSt7__cxx1112basic_stringIcSt11char_traitsIcESaIcEEEP12MathFunction@Base 3.2.0
 _ZN10Calculator17getActiveFunctionENSt7__cxx1112basic_stringIcSt11char_traitsIcESaIcEEE@Base 3.2.0
 _ZN10Calculator17getActiveVariableENSt7__cxx1112basic_stringIcSt11char_traitsIcESaIcEEE@Base 3.2.0
 _ZN10Calculator17getExpressionItemENSt7__cxx1112basic_stringIcSt11char_traitsIcESaIcEEEP14ExpressionItem@Base 3.2.0
 _ZN10Calculator17loadExchangeRatesEv@Base 3.2.0
 _ZN10Calculator17moveRPNRegisterUpEj@Base 3.2.0
 _ZN10Calculator17moveRPNRegisterUpEm@Base 3.2.0
 _ZN10Calculator17prefixNameChangedEP6Prefixb@Base 3.2.0
 _ZN10Calculator17startPrintControlEi@Base 3.2.0
 _ZN10Calculator17variableNameTakenENSt7__cxx1112basic_stringIcSt11char_traitsIcESaIcEEEP8Variable@Base 3.2.0
 _ZN10Calculator18convertToBaseUnitsERK13MathStructureRK17EvaluationOptions@Base 3.2.0
 _ZN10Calculator18defaultAssumptionsEv@Base 3.2.0
 _ZN10Calculator18fetchExchangeRatesEiNSt7__cxx1112basic_stringIcSt11char_traitsIcESaIcEEE@Base 3.2.0
 _ZN10Calculator18fetchExchangeRatesEii@Base 3.2.0
 _ZN10Calculator18loadGlobalDataSetsEv@Base 3.2.0
 _ZN10Calculator18loadGlobalPrefixesEv@Base 3.2.0
 _ZN10Calculator18saveFunctionCalledEv@Base 3.2.0
 _ZN10Calculator18setCustomInputBaseE6Number@Base 3.2.0
 _ZN10Calculator19addBuiltinFunctionsEv@Base 3.2.0
 _ZN10Calculator19addBuiltinVariablesEv@Base 3.2.0
 _ZN10Calculator19convertToMixedUnitsERK13MathStructureRK17EvaluationOptions@Base 3.2.0
 _ZN10Calculator19functionNameChangedEP12MathFunctionb@Base 3.2.0
 _ZN10Calculator19functionNameIsValidEPKc@Base 3.2.0
 _ZN10Calculator19functionNameIsValidEPKcPib@Base 3.2.0
 _ZN10Calculator19functionNameIsValidERKNSt7__cxx1112basic_stringIcSt11char_traitsIcESaIcEEE@Base 3.2.0
 _ZN10Calculator19functionNameIsValidERKNSt7__cxx1112basic_stringIcSt11char_traitsIcESaIcEEEPib@Base 3.2.0
 _ZN10Calculator19getExchangeRatesUrlB5cxx11Ei@Base 3.2.0
 _ZN10Calculator19loadGlobalFunctionsEv@Base 3.2.0
 _ZN10Calculator19loadGlobalVariablesEv@Base 3.2.0
 _ZN10Calculator19moveRPNRegisterDownEj@Base 3.2.0
 _ZN10Calculator19moveRPNRegisterDownEm@Base 3.2.0
 _ZN10Calculator19setCustomOutputBaseE6Number@Base 3.2.0
 _ZN10Calculator19variableNameChangedEP8Variableb@Base 3.2.0
 _ZN10Calculator19variableNameIsValidEPKc@Base 3.2.0
 _ZN10Calculator19variableNameIsValidEPKcPib@Base 3.2.0
 _ZN10Calculator19variableNameIsValidERKNSt7__cxx1112basic_stringIcSt11char_traitsIcESaIcEEE@Base 3.2.0
 _ZN10Calculator19variableNameIsValidERKNSt7__cxx1112basic_stringIcSt11char_traitsIcESaIcEEEPib@Base 3.2.0
 _ZN10Calculator20addStringAlternativeENSt7__cxx1112basic_stringIcSt11char_traitsIcESaIcEEES5_@Base 3.2.0
 _ZN10Calculator20calculateRPNRegisterEjiRK17EvaluationOptions@Base 3.2.0
 _ZN10Calculator20calculateRPNRegisterEmiRK17EvaluationOptions@Base 3.2.0
 _ZN10Calculator20convertToOptimalUnitERK13MathStructureRK17EvaluationOptionsb@Base 3.2.0
 _ZN10Calculator20delStringAlternativeENSt7__cxx1112basic_stringIcSt11char_traitsIcESaIcEEES5_@Base 3.2.0
 _ZN10Calculator20getExchangeRatesTimeEi@Base 3.2.0
 _ZN10Calculator20loadGlobalCurrenciesEv@Base 3.2.0
 _ZN10Calculator20loadLocalDefinitionsEv@Base 3.2.0
 _ZN10Calculator20setExchangeRatesUsedEi@Base 3.2.0
 _ZN10Calculator21expressionItemDeletedEP14ExpressionItem@Base 3.2.0
 _ZN10Calculator21loadGlobalDefinitionsENSt7__cxx1112basic_stringIcSt11char_traitsIcESaIcEEE@Base 3.2.0
 _ZN10Calculator21loadGlobalDefinitionsEv@Base 3.2.0
 _ZN10Calculator21setDefaultAssumptionsEP11Assumptions@Base 3.2.0
 _ZN10Calculator21useIntervalArithmeticEb@Base 3.2.0
 _ZN10Calculator22calculateRPNBitwiseNotERK17EvaluationOptionsP13MathStructure@Base 3.2.0
 _ZN10Calculator22calculateRPNBitwiseNotEiRK17EvaluationOptionsP13MathStructure@Base 3.2.0
 _ZN10Calculator22calculateRPNLogicalNotERK17EvaluationOptionsP13MathStructure@Base 3.2.0
 _ZN10Calculator22calculateRPNLogicalNotEiRK17EvaluationOptionsP13MathStructure@Base 3.2.0
 _ZN10Calculator22checkExchangeRatesDateEjbbi@Base 3.2.0
 _ZN10Calculator22convertToCompositeUnitERK13MathStructureP13CompositeUnitRK17EvaluationOptionsb@Base 3.2.0
 _ZN10Calculator22convertToValidUnitNameENSt7__cxx1112basic_stringIcSt11char_traitsIcESaIcEEE@Base 3.2.0
 _ZN10Calculator22expressionToPlotVectorENSt7__cxx1112basic_stringIcSt11char_traitsIcESaIcEEERK13MathStructureS5_RK12ParseOptionsi@Base 3.2.0
 _ZN10Calculator22expressionToPlotVectorENSt7__cxx1112basic_stringIcSt11char_traitsIcESaIcEEERK13MathStructureS8_S8_PS6_S5_RK12ParseOptionsi@Base 3.2.0
 _ZN10Calculator22expressionToPlotVectorENSt7__cxx1112basic_stringIcSt11char_traitsIcESaIcEEERK13MathStructureS8_iPS6_S5_RK12ParseOptionsi@Base 3.2.0
 _ZN10Calculator22expressionToPlotVectorENSt7__cxx1112basic_stringIcSt11char_traitsIcESaIcEEEfffP13MathStructureS5_RK12ParseOptionsi@Base 3.2.0
 _ZN10Calculator22expressionToPlotVectorENSt7__cxx1112basic_stringIcSt11char_traitsIcESaIcEEEffiP13MathStructureS5_RK12ParseOptionsi@Base 3.2.0
 _ZN10Calculator22resetExchangeRatesUsedEv@Base 3.2.0
 _ZN10Calculator22setMessagePrintOptionsERK12PrintOptions@Base 3.2.0
 _ZN10Calculator23checkSaveFunctionCalledEv@Base 3.2.0
 _ZN10Calculator23expressionItemActivatedEP14ExpressionItem@Base 3.2.0
 _ZN10Calculator23getActiveExpressionItemENSt7__cxx1112basic_stringIcSt11char_traitsIcESaIcEEEP14ExpressionItem@Base 3.2.0
 _ZN10Calculator23getActiveExpressionItemEP14ExpressionItem@Base 3.2.0
 _ZN10Calculator23setVariableUnitsEnabledEb@Base 3.2.0
 _ZN10Calculator24endTemporaryStopMessagesEPiS0_i@Base 3.2.0
 _ZN10Calculator24endTemporaryStopMessagesEbPSt6vectorI17CalculatorMessageSaIS1_EE@Base 3.2.0
 _ZN10Calculator24getExchangeRatesFileNameB5cxx11Ei@Base 3.2.0
 _ZN10Calculator25expressionItemDeactivatedEP14ExpressionItem@Base 3.2.0
 _ZN10Calculator25getInactiveExpressionItemENSt7__cxx1112basic_stringIcSt11char_traitsIcESaIcEEEP14ExpressionItem@Base 3.2.0
 _ZN10Calculator25printMathStructureTimeOutB5cxx11ERK13MathStructureiRK12PrintOptions@Base 3.2.0
 _ZN10Calculator25utf8_pos_is_valid_in_nameEPc@Base 3.2.0
 _ZN10Calculator26beginTemporaryStopMessagesEv@Base 3.2.0
 _ZN10Calculator26convertToValidFunctionNameENSt7__cxx1112basic_stringIcSt11char_traitsIcESaIcEEE@Base 3.2.0
 _ZN10Calculator26convertToValidVariableNameENSt7__cxx1112basic_stringIcSt11char_traitsIcESaIcEEE@Base 3.2.0
 _ZN10Calculator27addDefaultStringAlternativeENSt7__cxx1112basic_stringIcSt11char_traitsIcESaIcEEES5_@Base 3.2.0
 _ZN10Calculator27delDefaultStringAlternativeENSt7__cxx1112basic_stringIcSt11char_traitsIcESaIcEEES5_@Base 3.2.0
 _ZN10Calculator30setExchangeRatesWarningEnabledEb@Base 3.2.0
 _ZN10Calculator34endTemporaryStopIntervalArithmeticEv@Base 3.2.0
 _ZN10Calculator36beginTemporaryStopIntervalArithmeticEv@Base 3.2.0
 _ZN10Calculator36endTemporaryEnableIntervalArithmeticEv@Base 3.2.0
 _ZN10Calculator38beginTemporaryEnableIntervalArithmeticEv@Base 3.2.0
 _ZN10Calculator4busyEv@Base 3.2.0
 _ZN10Calculator5abortEv@Base 3.2.0
 _ZN10Calculator5addIdEP13MathStructureb@Base 3.2.0
 _ZN10Calculator5delIdEj@Base 3.2.0
 _ZN10Calculator5delIdEm@Base 3.2.0
 _ZN10Calculator5errorEbPKcz@Base 3.2.0
 _ZN10Calculator5errorEbiPKcz@Base 3.2.0
 _ZN10Calculator5getIdEj@Base 3.2.0
 _ZN10Calculator5getIdEm@Base 3.2.0
 _ZN10Calculator5parseENSt7__cxx1112basic_stringIcSt11char_traitsIcESaIcEEERK12ParseOptions@Base 3.2.0
 _ZN10Calculator5parseEP13MathStructureNSt7__cxx1112basic_stringIcSt11char_traitsIcESaIcEEERK12ParseOptions@Base 3.2.0
 _ZN10Calculator5printB5cxx11ERK13MathStructureiRK12PrintOptions@Base 3.2.0
 _ZN10Calculator5resetEv@Base 3.2.0
 _ZN10Calculator6delUFVEP14ExpressionItem@Base 3.2.0
 _ZN10Calculator7abortedEv@Base 3.2.0
 _ZN10Calculator7addUnitEP4Unitbb@Base 3.2.0
 _ZN10Calculator7canPlotEv@Base 3.2.0
 _ZN10Calculator7convertENSt7__cxx1112basic_stringIcSt11char_traitsIcESaIcEEEP4UnitS7_RK17EvaluationOptions@Base 3.2.0
 _ZN10Calculator7convertENSt7__cxx1112basic_stringIcSt11char_traitsIcESaIcEEEP4UnitS7_iRK17EvaluationOptions@Base 3.2.0
 _ZN10Calculator7convertERK13MathStructureNSt7__cxx1112basic_stringIcSt11char_traitsIcESaIcEEERK17EvaluationOptionsPS0_@Base 3.2.0
 _ZN10Calculator7convertERK13MathStructureP13KnownVariableRK17EvaluationOptions@Base 3.2.0
 _ZN10Calculator7convertERK13MathStructureP4UnitRK17EvaluationOptionsbb@Base 3.2.0
 _ZN10Calculator7convertEdP4UnitS1_RK17EvaluationOptions@Base 3.2.0
 _ZN10Calculator7getNameENSt7__cxx1112basic_stringIcSt11char_traitsIcESaIcEEEP14ExpressionItembb@Base 3.2.0
 _ZN10Calculator7getUnitENSt7__cxx1112basic_stringIcSt11char_traitsIcESaIcEEE@Base 3.2.0
 _ZN10Calculator7hasGVFSEv@Base 3.2.0
 _ZN10Calculator7hasUnitEP4Unit@Base 3.2.0
 _ZN10Calculator7messageE11MessageTypePKcz@Base 3.2.0
 _ZN10Calculator7messageE11MessageTypeiPKcP13__va_list_tag@Base 3.2.0
 _ZN10Calculator7messageE11MessageTypeiPKcPc@Base 3.2.0
 _ZN10Calculator7messageE11MessageTypeiPKcz@Base 3.2.0
 _ZN10Calculator7messageEv@Base 3.2.0
 _ZN10Calculator8canFetchEv@Base 3.2.0
 _ZN10Calculator8parseAddERNSt7__cxx1112basic_stringIcSt11char_traitsIcESaIcEEEP13MathStructureRK12ParseOptions13MathOperationb@Base 3.2.0
 _ZN10Calculator8parseAddERNSt7__cxx1112basic_stringIcSt11char_traitsIcESaIcEEEP13MathStructureRK12ParseOptions@Base 3.2.0
 _ZN10Calculator9addPrefixEP6Prefix@Base 3.2.0
 _ZN10Calculator9calculateENSt7__cxx1112basic_stringIcSt11char_traitsIcESaIcEEERK17EvaluationOptionsP13MathStructureSA_b@Base 3.2.0
 _ZN10Calculator9calculateEP13MathStructureNSt7__cxx1112basic_stringIcSt11char_traitsIcESaIcEEEiRK17EvaluationOptionsS1_S1_b@Base 3.2.0
 _ZN10Calculator9calculateEP13MathStructureiRK17EvaluationOptionsNSt7__cxx1112basic_stringIcSt11char_traitsIcESaIcEEE@Base 3.2.0
 _ZN10Calculator9calculateERK13MathStructureRK17EvaluationOptionsNSt7__cxx1112basic_stringIcSt11char_traitsIcESaIcEEE@Base 3.2.0
 _ZN10Calculator9exportCSVERK13MathStructurePKcNSt7__cxx1112basic_stringIcSt11char_traitsIcESaIcEEE@Base 3.2.0
 _ZN10Calculator9importCSVEPKcibNSt7__cxx1112basic_stringIcSt11char_traitsIcESaIcEEEbS7_S7_S7_@Base 3.2.0
 _ZN10Calculator9importCSVER13MathStructurePKciNSt7__cxx1112basic_stringIcSt11char_traitsIcESaIcEEEPSt6vectorIS9_SaIS9_EE@Base 3.2.0
 _ZN10Calculator9nameTakenENSt7__cxx1112basic_stringIcSt11char_traitsIcESaIcEEEP14ExpressionItem@Base 3.2.0
 _ZN10Calculator9saveStateEv@Base 3.2.0
 _ZN10Calculator9saveUnitsEPKcb@Base 3.2.0
 _ZN10Calculator9setLocaleEv@Base 3.2.0
 _ZN10CalculatorC1Eb@Base 3.2.0
 _ZN10CalculatorC1Ev@Base 3.2.0
 _ZN10CalculatorC2Eb@Base 3.2.0
 _ZN10CalculatorC2Ev@Base 3.2.0
 _ZN10CalculatorD0Ev@Base 3.2.0
 _ZN10CalculatorD1Ev@Base 3.2.0
 _ZN10CalculatorD2Ev@Base 3.2.0
 _ZN10CiFunction9calculateER13MathStructureRKS0_RK17EvaluationOptions@Base 3.2.0
 _ZN10CiFunctionC1Ev@Base 3.2.0
 _ZN10CiFunctionC2Ev@Base 3.2.0
 _ZN10CiFunctionD0Ev@Base 3.2.0
 _ZN10CiFunctionD1Ev@Base 3.2.0
 _ZN10CiFunctionD2Ev@Base 3.2.0
 _ZN10DataObject11getPropertyB5cxx11EP12DataPropertyPi@Base 3.2.0
 _ZN10DataObject11setPropertyEP12DataPropertyNSt7__cxx1112basic_stringIcSt11char_traitsIcESaIcEEEi@Base 3.2.0
 _ZN10DataObject13erasePropertyEP12DataProperty@Base 3.2.0
 _ZN10DataObject15setUserModifiedEb@Base 3.2.0
 _ZN10DataObject17getPropertyStructEP12DataProperty@Base 3.2.0
 _ZN10DataObject22getPropertyInputStringB5cxx11EP12DataProperty@Base 3.2.0
 _ZN10DataObject24getPropertyDisplayStringB5cxx11EP12DataProperty@Base 3.2.0
 _ZN10DataObject26getNonlocalizedKeyPropertyB5cxx11EP12DataProperty@Base 3.2.0
 _ZN10DataObject26setNonlocalizedKeyPropertyEP12DataPropertyNSt7__cxx1112basic_stringIcSt11char_traitsIcESaIcEEE@Base 3.2.0
 _ZN10DataObjectC1EP7DataSet@Base 3.2.0
 _ZN10DataObjectC2EP7DataSet@Base 3.2.0
 _ZN10EiFunction9calculateER13MathStructureRKS0_RK17EvaluationOptions@Base 3.2.0
 _ZN10EiFunctionC1Ev@Base 3.2.0
 _ZN10EiFunctionC2Ev@Base 3.2.0
 _ZN10EiFunctionD0Ev@Base 3.2.0
 _ZN10EiFunctionD1Ev@Base 3.2.0
 _ZN10EiFunctionD2Ev@Base 3.2.0
 _ZN10IFFunction9calculateER13MathStructureRKS0_RK17EvaluationOptions@Base 3.2.0
 _ZN10IFFunctionC1Ev@Base 3.2.0
 _ZN10IFFunctionC2Ev@Base 3.2.0
 _ZN10IFFunctionD0Ev@Base 3.2.0
 _ZN10IFFunctionD1Ev@Base 3.2.0
 _ZN10IFFunctionD2Ev@Base 3.2.0
 _ZN10ImFunction9calculateER13MathStructureRKS0_RK17EvaluationOptions@Base 3.2.0
 _ZN10ImFunctionC1Ev@Base 3.2.0
 _ZN10ImFunctionC2Ev@Base 3.2.0
 _ZN10ImFunctionD0Ev@Base 3.2.0
 _ZN10ImFunctionD1Ev@Base 3.2.0
 _ZN10ImFunctionD2Ev@Base 3.2.0
 _ZN10LiFunction9calculateER13MathStructureRKS0_RK17EvaluationOptions@Base 3.2.0
 _ZN10LiFunctionC1Ev@Base 3.2.0
 _ZN10LiFunctionC2Ev@Base 3.2.0
 _ZN10LiFunctionD0Ev@Base 3.2.0
 _ZN10LiFunctionD1Ev@Base 3.2.0
 _ZN10LiFunctionD2Ev@Base 3.2.0
 _ZN10PiVariableC1Ev@Base 3.2.0
 _ZN10PiVariableC2Ev@Base 3.2.0
 _ZN10PiVariableD0Ev@Base 3.2.0
 _ZN10PiVariableD1Ev@Base 3.2.0
 _ZN10PiVariableD2Ev@Base 3.2.0
 _ZN10ReFunction9calculateER13MathStructureRKS0_RK17EvaluationOptions@Base 3.2.0
 _ZN10ReFunctionC1Ev@Base 3.2.0
 _ZN10ReFunctionC2Ev@Base 3.2.0
 _ZN10ReFunctionD0Ev@Base 3.2.0
 _ZN10ReFunctionD1Ev@Base 3.2.0
 _ZN10ReFunctionD2Ev@Base 3.2.0
 _ZN10SiFunction9calculateER13MathStructureRKS0_RK17EvaluationOptions@Base 3.2.0
 _ZN10SiFunctionC1Ev@Base 3.2.0
 _ZN10SiFunctionC2Ev@Base 3.2.0
 _ZN10SiFunctionD0Ev@Base 3.2.0
 _ZN10SiFunctionD1Ev@Base 3.2.0
 _ZN10SiFunctionD2Ev@Base 3.2.0
 _ZN10liFunction9calculateER13MathStructureRKS0_RK17EvaluationOptions@Base 3.2.0
 _ZN10liFunctionC1Ev@Base 3.2.0
 _ZN10liFunctionC2Ev@Base 3.2.0
 _ZN10liFunctionD0Ev@Base 3.2.0
 _ZN10liFunctionD1Ev@Base 3.2.0
 _ZN10liFunctionD2Ev@Base 3.2.0
 _ZN11AbsFunction9calculateER13MathStructureRKS0_RK17EvaluationOptions@Base 3.2.0
 _ZN11AbsFunctionC1Ev@Base 3.2.0
 _ZN11AbsFunctionC2Ev@Base 3.2.0
 _ZN11AbsFunctionD0Ev@Base 3.2.0
 _ZN11AbsFunctionD1Ev@Base 3.2.0
 _ZN11AbsFunctionD2Ev@Base 3.2.0
 _ZN11ArgFunction9calculateER13MathStructureRKS0_RK17EvaluationOptions@Base 3.2.0
 _ZN11ArgFunctionC1Ev@Base 3.2.0
 _ZN11ArgFunctionC2Ev@Base 3.2.0
 _ZN11ArgFunctionD0Ev@Base 3.2.0
 _ZN11ArgFunctionD1Ev@Base 3.2.0
 _ZN11ArgFunctionD2Ev@Base 3.2.0
 _ZN11ArgumentSet11addArgumentEP8Argument@Base 3.2.0
 _ZN11ArgumentSet11delArgumentEj@Base 3.2.0
 _ZN11ArgumentSet11delArgumentEm@Base 3.2.0
 _ZN11ArgumentSetC1ENSt7__cxx1112basic_stringIcSt11char_traitsIcESaIcEEEbb@Base 3.2.0
 _ZN11ArgumentSetC1EPKS_@Base 3.2.0
 _ZN11ArgumentSetC2ENSt7__cxx1112basic_stringIcSt11char_traitsIcESaIcEEEbb@Base 3.2.0
 _ZN11ArgumentSetC2EPKS_@Base 3.2.0
 _ZN11ArgumentSetD0Ev@Base 3.2.0
 _ZN11ArgumentSetD1Ev@Base 3.2.0
 _ZN11ArgumentSetD2Ev@Base 3.2.0
 _ZN11Assumptions10isNegativeEv@Base 3.2.0
 _ZN11Assumptions10isPositiveEv@Base 3.2.0
 _ZN11Assumptions10isRationalEv@Base 3.2.0
 _ZN11Assumptions11isNonMatrixEv@Base 3.2.0
 _ZN11Assumptions13isNonNegativeEv@Base 3.2.0
 _ZN11Assumptions13isNonPositiveEv@Base 3.2.0
 _ZN11Assumptions19setIncludeEqualsMaxEb@Base 3.2.0
 _ZN11Assumptions19setIncludeEqualsMinEb@Base 3.2.0
 _ZN11Assumptions4signEv@Base 3.2.0
 _ZN11Assumptions4typeEv@Base 3.2.0
 _ZN11Assumptions6isRealEv@Base 3.2.0
 _ZN11Assumptions6setMaxEPK6Number@Base 3.2.0
 _ZN11Assumptions6setMinEPK6Number@Base 3.2.0
 _ZN11Assumptions7setSignE14AssumptionSign@Base 3.2.0
 _ZN11Assumptions7setTypeE14AssumptionType@Base 3.2.0
 _ZN11Assumptions8isNumberEv@Base 3.2.0
 _ZN11Assumptions8isScalarEv@Base 3.2.0
 _ZN11Assumptions9isComplexEv@Base 3.2.0
 _ZN11Assumptions9isIntegerEv@Base 3.2.0
 _ZN11Assumptions9isNonZeroEv@Base 3.2.0
 _ZN11AssumptionsC1Ev@Base 3.2.0
 _ZN11AssumptionsC2Ev@Base 3.2.0
 _ZN11AssumptionsD1Ev@Base 3.2.0
 _ZN11AssumptionsD2Ev@Base 3.2.0
 _ZN11BinFunction9calculateER13MathStructureRKS0_RK17EvaluationOptions@Base 3.2.0
 _ZN11BinFunctionC1Ev@Base 3.2.0
 _ZN11BinFunctionC2Ev@Base 3.2.0
 _ZN11BinFunctionD0Ev@Base 3.2.0
 _ZN11BinFunctionD1Ev@Base 3.2.0
 _ZN11BinFunctionD2Ev@Base 3.2.0
 _ZN11ChiFunction9calculateER13MathStructureRKS0_RK17EvaluationOptions@Base 3.2.0
 _ZN11ChiFunctionC1Ev@Base 3.2.0
 _ZN11ChiFunctionC2Ev@Base 3.2.0
 _ZN11ChiFunctionD0Ev@Base 3.2.0
 _ZN11ChiFunctionD1Ev@Base 3.2.0
 _ZN11ChiFunctionD2Ev@Base 3.2.0
 _ZN11CosFunction9calculateER13MathStructureRKS0_RK17EvaluationOptions@Base 3.2.0
 _ZN11CosFunctionC1Ev@Base 3.2.0
 _ZN11CosFunctionC2Ev@Base 3.2.0
 _ZN11CosFunctionD0Ev@Base 3.2.0
 _ZN11CosFunctionD1Ev@Base 3.2.0
 _ZN11CosFunctionD2Ev@Base 3.2.0
 _ZN11DayFunction9calculateER13MathStructureRKS0_RK17EvaluationOptions@Base 3.2.0
 _ZN11DayFunctionC1Ev@Base 3.2.0
 _ZN11DayFunctionC2Ev@Base 3.2.0
 _ZN11DayFunctionD0Ev@Base 3.2.0
 _ZN11DayFunctionD1Ev@Base 3.2.0
 _ZN11DayFunctionD2Ev@Base 3.2.0
 _ZN11ErfFunction9calculateER13MathStructureRKS0_RK17EvaluationOptions@Base 3.2.0
 _ZN11ErfFunctionC1Ev@Base 3.2.0
 _ZN11ErfFunctionC2Ev@Base 3.2.0
 _ZN11ErfFunctionD0Ev@Base 3.2.0
 _ZN11ErfFunctionD1Ev@Base 3.2.0
 _ZN11ErfFunctionD2Ev@Base 3.2.0
 _ZN11ExpFunction9calculateER13MathStructureRKS0_RK17EvaluationOptions@Base 3.2.0
 _ZN11ExpFunctionC1Ev@Base 3.2.0
 _ZN11ExpFunctionC2Ev@Base 3.2.0
 _ZN11ExpFunctionD0Ev@Base 3.2.0
 _ZN11ExpFunctionD1Ev@Base 3.2.0
 _ZN11ExpFunctionD2Ev@Base 3.2.0
 _ZN11ForFunction9calculateER13MathStructureRKS0_RK17EvaluationOptions@Base 3.2.0
 _ZN11ForFunctionC1Ev@Base 3.2.0
 _ZN11ForFunctionC2Ev@Base 3.2.0
 _ZN11ForFunctionD0Ev@Base 3.2.0
 _ZN11ForFunctionD1Ev@Base 3.2.0
 _ZN11ForFunctionD2Ev@Base 3.2.0
 _ZN11GcdFunction9calculateER13MathStructureRKS0_RK17EvaluationOptions@Base 3.2.0
 _ZN11GcdFunctionC1Ev@Base 3.2.0
 _ZN11GcdFunctionC2Ev@Base 3.2.0
 _ZN11GcdFunctionD0Ev@Base 3.2.0
 _ZN11GcdFunctionD1Ev@Base 3.2.0
 _ZN11GcdFunctionD2Ev@Base 3.2.0
 _ZN11HexFunction9calculateER13MathStructureRKS0_RK17EvaluationOptions@Base 3.2.0
 _ZN11HexFunctionC1Ev@Base 3.2.0
 _ZN11HexFunctionC2Ev@Base 3.2.0
 _ZN11HexFunctionD0Ev@Base 3.2.0
 _ZN11HexFunctionD1Ev@Base 3.2.0
 _ZN11HexFunctionD2Ev@Base 3.2.0
 _ZN11IntFunction9calculateER13MathStructureRKS0_RK17EvaluationOptions@Base 3.2.0
 _ZN11IntFunctionC1Ev@Base 3.2.0
 _ZN11IntFunctionC2Ev@Base 3.2.0
 _ZN11IntFunctionD0Ev@Base 3.2.0
 _ZN11IntFunctionD1Ev@Base 3.2.0
 _ZN11IntFunctionD2Ev@Base 3.2.0
 _ZN11LcmFunction9calculateER13MathStructureRKS0_RK17EvaluationOptions@Base 3.2.0
 _ZN11LcmFunctionC1Ev@Base 3.2.0
 _ZN11LcmFunctionC2Ev@Base 3.2.0
 _ZN11LcmFunctionD0Ev@Base 3.2.0
 _ZN11LcmFunctionD1Ev@Base 3.2.0
 _ZN11LcmFunctionD2Ev@Base 3.2.0
 _ZN11LogFunction9calculateER13MathStructureRKS0_RK17EvaluationOptions@Base 3.2.0
 _ZN11LogFunctionC1Ev@Base 3.2.0
 _ZN11LogFunctionC2Ev@Base 3.2.0
 _ZN11LogFunctionD0Ev@Base 3.2.0
 _ZN11LogFunctionD1Ev@Base 3.2.0
 _ZN11LogFunctionD2Ev@Base 3.2.0
 _ZN11MaxFunction9calculateER13MathStructureRKS0_RK17EvaluationOptions@Base 3.2.0
 _ZN11MaxFunctionC1Ev@Base 3.2.0
 _ZN11MaxFunctionC2Ev@Base 3.2.0
 _ZN11MaxFunctionD0Ev@Base 3.2.0
 _ZN11MaxFunctionD1Ev@Base 3.2.0
 _ZN11MaxFunctionD2Ev@Base 3.2.0
 _ZN11MinFunction9calculateER13MathStructureRKS0_RK17EvaluationOptions@Base 3.2.0
 _ZN11MinFunctionC1Ev@Base 3.2.0
 _ZN11MinFunctionC2Ev@Base 3.2.0
 _ZN11MinFunctionD0Ev@Base 3.2.0
 _ZN11MinFunctionD1Ev@Base 3.2.0
 _ZN11MinFunctionD2Ev@Base 3.2.0
 _ZN11ModFunction9calculateER13MathStructureRKS0_RK17EvaluationOptions@Base 3.2.0
 _ZN11ModFunctionC1Ev@Base 3.2.0
 _ZN11ModFunctionC2Ev@Base 3.2.0
 _ZN11ModFunctionD0Ev@Base 3.2.0
 _ZN11ModFunctionD1Ev@Base 3.2.0
 _ZN11ModFunctionD2Ev@Base 3.2.0
 _ZN11NowVariable14representsRealEb@Base 3.2.0
 _ZN11NowVariable16representsNumberEb@Base 3.2.0
 _ZN11NowVariable17representsNonZeroEb@Base 3.2.0
 _ZN11NowVariable18representsPositiveEb@Base 3.2.0
 _ZN11NowVariable20representsNonIntegerEb@Base 3.2.0
 _ZN11NowVariable21representsNonNegativeEb@Base 3.2.0
 _ZN11NowVariableC1Ev@Base 3.2.0
 _ZN11NowVariableC2Ev@Base 3.2.0
 _ZN11NowVariableD0Ev@Base 3.2.0
 _ZN11NowVariableD1Ev@Base 3.2.0
 _ZN11NowVariableD2Ev@Base 3.2.0
 _ZN11OctFunction9calculateER13MathStructureRKS0_RK17EvaluationOptions@Base 3.2.0
 _ZN11OctFunctionC1Ev@Base 3.2.0
 _ZN11OctFunctionC2Ev@Base 3.2.0
 _ZN11OctFunctionD0Ev@Base 3.2.0
 _ZN11OctFunctionD1Ev@Base 3.2.0
 _ZN11OctFunctionD2Ev@Base 3.2.0
 _ZN11OddFunction9calculateER13MathStructureRKS0_RK17EvaluationOptions@Base 3.2.0
 _ZN11OddFunctionC1Ev@Base 3.2.0
 _ZN11OddFunctionC2Ev@Base 3.2.0
 _ZN11OddFunctionD0Ev@Base 3.2.0
 _ZN11OddFunctionD1Ev@Base 3.2.0
 _ZN11OddFunctionD2Ev@Base 3.2.0
 _ZN11RemFunction9calculateER13MathStructureRKS0_RK17EvaluationOptions@Base 3.2.0
 _ZN11RemFunctionC1Ev@Base 3.2.0
 _ZN11RemFunctionC2Ev@Base 3.2.0
 _ZN11RemFunctionD0Ev@Base 3.2.0
 _ZN11RemFunctionD1Ev@Base 3.2.0
 _ZN11RemFunctionD2Ev@Base 3.2.0
 _ZN11RowFunction9calculateER13MathStructureRKS0_RK17EvaluationOptions@Base 3.2.0
 _ZN11RowFunctionC1Ev@Base 3.2.0
 _ZN11RowFunctionC2Ev@Base 3.2.0
 _ZN11RowFunctionD0Ev@Base 3.2.0
 _ZN11RowFunctionD1Ev@Base 3.2.0
 _ZN11RowFunctionD2Ev@Base 3.2.0
 _ZN11ShiFunction9calculateER13MathStructureRKS0_RK17EvaluationOptions@Base 3.2.0
 _ZN11ShiFunctionC1Ev@Base 3.2.0
 _ZN11ShiFunctionC2Ev@Base 3.2.0
 _ZN11ShiFunctionD0Ev@Base 3.2.0
 _ZN11ShiFunctionD1Ev@Base 3.2.0
 _ZN11ShiFunctionD2Ev@Base 3.2.0
 _ZN11SinFunction9calculateER13MathStructureRKS0_RK17EvaluationOptions@Base 3.2.0
 _ZN11SinFunctionC1Ev@Base 3.2.0
 _ZN11SinFunctionC2Ev@Base 3.2.0
 _ZN11SinFunctionD0Ev@Base 3.2.0
 _ZN11SinFunctionD1Ev@Base 3.2.0
 _ZN11SinFunctionD2Ev@Base 3.2.0
 _ZN11SumFunction9calculateER13MathStructureRKS0_RK17EvaluationOptions@Base 3.2.0
 _ZN11SumFunctionC1Ev@Base 3.2.0
 _ZN11SumFunctionC2Ev@Base 3.2.0
 _ZN11SumFunctionD0Ev@Base 3.2.0
 _ZN11SumFunctionD1Ev@Base 3.2.0
 _ZN11SumFunctionD2Ev@Base 3.2.0
 _ZN11TanFunction9calculateER13MathStructureRKS0_RK17EvaluationOptions@Base 3.2.0
 _ZN11TanFunctionC1Ev@Base 3.2.0
 _ZN11TanFunctionC2Ev@Base 3.2.0
 _ZN11TanFunctionD0Ev@Base 3.2.0
 _ZN11TanFunctionD1Ev@Base 3.2.0
 _ZN11TanFunctionD2Ev@Base 3.2.0
 _ZN11XorFunction9calculateER13MathStructureRKS0_RK17EvaluationOptions@Base 3.2.0
 _ZN11XorFunctionC1Ev@Base 3.2.0
 _ZN11XorFunctionC2Ev@Base 3.2.0
 _ZN11XorFunctionD0Ev@Base 3.2.0
 _ZN11XorFunctionD1Ev@Base 3.2.0
 _ZN11XorFunctionD2Ev@Base 3.2.0
 _ZN12AcosFunction9calculateER13MathStructureRKS0_RK17EvaluationOptions@Base 3.2.0
 _ZN12AcosFunctionC1Ev@Base 3.2.0
 _ZN12AcosFunctionC2Ev@Base 3.2.0
 _ZN12AcosFunctionD0Ev@Base 3.2.0
 _ZN12AcosFunctionD1Ev@Base 3.2.0
 _ZN12AcosFunctionD2Ev@Base 3.2.0
 _ZN12AiryFunction9calculateER13MathStructureRKS0_RK17EvaluationOptions@Base 3.2.0
 _ZN12AiryFunctionC1Ev@Base 3.2.0
 _ZN12AiryFunctionC2Ev@Base 3.2.0
 _ZN12AiryFunctionD0Ev@Base 3.2.0
 _ZN12AiryFunctionD1Ev@Base 3.2.0
 _ZN12AiryFunctionD2Ev@Base 3.2.0
 _ZN12AreaFunction9calculateER13MathStructureRKS0_RK17EvaluationOptions@Base 3.2.0
 _ZN12AreaFunctionC1Ev@Base 3.2.0
 _ZN12AreaFunctionC2Ev@Base 3.2.0
 _ZN12AreaFunctionD0Ev@Base 3.2.0
 _ZN12AreaFunctionD1Ev@Base 3.2.0
 _ZN12AreaFunctionD2Ev@Base 3.2.0
 _ZN12AsinFunction9calculateER13MathStructureRKS0_RK17EvaluationOptions@Base 3.2.0
 _ZN12AsinFunctionC1Ev@Base 3.2.0
 _ZN12AsinFunctionC2Ev@Base 3.2.0
 _ZN12AsinFunctionD0Ev@Base 3.2.0
 _ZN12AsinFunctionD1Ev@Base 3.2.0
 _ZN12AsinFunctionD2Ev@Base 3.2.0
 _ZN12AtanFunction9calculateER13MathStructureRKS0_RK17EvaluationOptions@Base 3.2.0
 _ZN12AtanFunctionC1Ev@Base 3.2.0
 _ZN12AtanFunctionC2Ev@Base 3.2.0
 _ZN12AtanFunctionD0Ev@Base 3.2.0
 _ZN12AtanFunctionD1Ev@Base 3.2.0
 _ZN12AtanFunctionD2Ev@Base 3.2.0
 _ZN12BaseFunction9calculateER13MathStructureRKS0_RK17EvaluationOptions@Base 3.2.0
 _ZN12BaseFunctionC1Ev@Base 3.2.0
 _ZN12BaseFunctionC2Ev@Base 3.2.0
 _ZN12BaseFunctionD0Ev@Base 3.2.0
 _ZN12BaseFunctionD1Ev@Base 3.2.0
 _ZN12BaseFunctionD2Ev@Base 3.2.0
 _ZN12BetaFunction9calculateER13MathStructureRKS0_RK17EvaluationOptions@Base 3.2.0
 _ZN12BetaFunctionC1Ev@Base 3.2.0
 _ZN12BetaFunctionC2Ev@Base 3.2.0
 _ZN12BetaFunctionD0Ev@Base 3.2.0
 _ZN12BetaFunctionD1Ev@Base 3.2.0
 _ZN12BetaFunctionD2Ev@Base 3.2.0
 _ZN12BinaryPrefix11setExponentEi@Base 3.2.0
 _ZN12BinaryPrefixC1EiNSt7__cxx1112basic_stringIcSt11char_traitsIcESaIcEEES5_S5_@Base 3.2.0
 _ZN12BinaryPrefixC2EiNSt7__cxx1112basic_stringIcSt11char_traitsIcESaIcEEES5_S5_@Base 3.2.0
 _ZN12BinaryPrefixD0Ev@Base 3.2.0
 _ZN12BinaryPrefixD1Ev@Base 3.2.0
 _ZN12BinaryPrefixD2Ev@Base 3.2.0
 _ZN12CbrtFunction9calculateER13MathStructureRKS0_RK17EvaluationOptions@Base 3.2.0
 _ZN12CbrtFunctionC1Ev@Base 3.2.0
 _ZN12CbrtFunctionC2Ev@Base 3.2.0
 _ZN12CbrtFunctionD0Ev@Base 3.2.0
 _ZN12CbrtFunctionD1Ev@Base 3.2.0
 _ZN12CbrtFunctionD2Ev@Base 3.2.0
 _ZN12CeilFunction9calculateER13MathStructureRKS0_RK17EvaluationOptions@Base 3.2.0
 _ZN12CeilFunctionC1Ev@Base 3.2.0
 _ZN12CeilFunctionC2Ev@Base 3.2.0
 _ZN12CeilFunctionD0Ev@Base 3.2.0
 _ZN12CeilFunctionD1Ev@Base 3.2.0
 _ZN12CeilFunctionD2Ev@Base 3.2.0
 _ZN12CharFunction9calculateER13MathStructureRKS0_RK17EvaluationOptions@Base 3.2.0
 _ZN12CharFunctionC1Ev@Base 3.2.0
 _ZN12CharFunctionC2Ev@Base 3.2.0
 _ZN12CharFunctionD0Ev@Base 3.2.0
 _ZN12CharFunctionD1Ev@Base 3.2.0
 _ZN12CharFunctionD2Ev@Base 3.2.0
 _ZN12CoshFunction9calculateER13MathStructureRKS0_RK17EvaluationOptions@Base 3.2.0
 _ZN12CoshFunctionC1Ev@Base 3.2.0
 _ZN12CoshFunctionC2Ev@Base 3.2.0
 _ZN12CoshFunctionD0Ev@Base 3.2.0
 _ZN12CoshFunctionD1Ev@Base 3.2.0
 _ZN12CoshFunctionD2Ev@Base 3.2.0
 _ZN12DataProperty10clearNamesEv@Base 3.2.0
 _ZN12DataProperty13getUnitStructEv@Base 3.2.0
 _ZN12DataProperty14generateStructERKNSt7__cxx1112basic_stringIcSt11char_traitsIcESaIcEEEi@Base 3.2.0
 _ZN12DataProperty14getInputStringERKNSt7__cxx1112basic_stringIcSt11char_traitsIcESaIcEEE@Base 3.2.0
 _ZN12DataProperty14setApproximateEb@Base 3.2.0
 _ZN12DataProperty14setDescriptionENSt7__cxx1112basic_stringIcSt11char_traitsIcESaIcEEE@Base 3.2.0
 _ZN12DataProperty15setPropertyTypeE12PropertyType@Base 3.2.0
 _ZN12DataProperty15setUserModifiedEb@Base 3.2.0
 _ZN12DataProperty15setUsesBracketsEb@Base 3.2.0
 _ZN12DataProperty16getDisplayStringERKNSt7__cxx1112basic_stringIcSt11char_traitsIcESaIcEEE@Base 3.2.0
 _ZN12DataProperty16setCaseSensitiveEb@Base 3.2.0
 _ZN12DataProperty18setNameIsReferenceEjb@Base 3.2.0
 _ZN12DataProperty18setNameIsReferenceEmb@Base 3.2.0
 _ZN12DataProperty3setERKS_@Base 3.2.0
 _ZN12DataProperty6setKeyEb@Base 3.2.0
 _ZN12DataProperty7addNameENSt7__cxx1112basic_stringIcSt11char_traitsIcESaIcEEEbj@Base 3.2.0
 _ZN12DataProperty7addNameENSt7__cxx1112basic_stringIcSt11char_traitsIcESaIcEEEbm@Base 3.2.0
 _ZN12DataProperty7hasNameERKNSt7__cxx1112basic_stringIcSt11char_traitsIcESaIcEEE@Base 3.2.0
 _ZN12DataProperty7setNameENSt7__cxx1112basic_stringIcSt11char_traitsIcESaIcEEEb@Base 3.2.0
 _ZN12DataProperty7setUnitENSt7__cxx1112basic_stringIcSt11char_traitsIcESaIcEEE@Base 3.2.0
 _ZN12DataProperty8setTitleENSt7__cxx1112basic_stringIcSt11char_traitsIcESaIcEEE@Base 3.2.0
 _ZN12DataProperty9setHiddenEb@Base 3.2.0
 _ZN12DataPropertyC1EP7DataSetNSt7__cxx1112basic_stringIcSt11char_traitsIcESaIcEEES7_S7_@Base 3.2.0
 _ZN12DataPropertyC1ERKS_@Base 3.2.0
 _ZN12DataPropertyC2EP7DataSetNSt7__cxx1112basic_stringIcSt11char_traitsIcESaIcEEES7_S7_@Base 3.2.0
 _ZN12DataPropertyC2ERKS_@Base 3.2.0
 _ZN12DateArgumentC1ENSt7__cxx1112basic_stringIcSt11char_traitsIcESaIcEEEbb@Base 3.2.0
 _ZN12DateArgumentC1EPKS_@Base 3.2.0
 _ZN12DateArgumentC2ENSt7__cxx1112basic_stringIcSt11char_traitsIcESaIcEEEbb@Base 3.2.0
 _ZN12DateArgumentC2EPKS_@Base 3.2.0
 _ZN12DateArgumentD0Ev@Base 3.2.0
 _ZN12DateArgumentD1Ev@Base 3.2.0
 _ZN12DateArgumentD2Ev@Base 3.2.0
 _ZN12DateFunction9calculateER13MathStructureRKS0_RK17EvaluationOptions@Base 3.2.0
 _ZN12DateFunctionC1Ev@Base 3.2.0
 _ZN12DateFunctionC2Ev@Base 3.2.0
 _ZN12DateFunctionD0Ev@Base 3.2.0
 _ZN12DateFunctionD1Ev@Base 3.2.0
 _ZN12DateFunctionD2Ev@Base 3.2.0
 _ZN12DaysFunction9calculateER13MathStructureRKS0_RK17EvaluationOptions@Base 3.2.0
 _ZN12DaysFunctionC1Ev@Base 3.2.0
 _ZN12DaysFunctionC2Ev@Base 3.2.0
 _ZN12DaysFunctionD0Ev@Base 3.2.0
 _ZN12DaysFunctionD1Ev@Base 3.2.0
 _ZN12DaysFunctionD2Ev@Base 3.2.0
 _ZN12ErfcFunction9calculateER13MathStructureRKS0_RK17EvaluationOptions@Base 3.2.0
 _ZN12ErfcFunctionC1Ev@Base 3.2.0
 _ZN12ErfcFunctionC2Ev@Base 3.2.0
 _ZN12ErfcFunctionD0Ev@Base 3.2.0
 _ZN12ErfcFunctionD1Ev@Base 3.2.0
 _ZN12ErfcFunctionD2Ev@Base 3.2.0
 _ZN12EvenFunction9calculateER13MathStructureRKS0_RK17EvaluationOptions@Base 3.2.0
 _ZN12EvenFunctionC1Ev@Base 3.2.0
 _ZN12EvenFunctionC2Ev@Base 3.2.0
 _ZN12EvenFunctionD0Ev@Base 3.2.0
 _ZN12EvenFunctionD1Ev@Base 3.2.0
 _ZN12EvenFunctionD2Ev@Base 3.2.0
 _ZN12FileArgumentC1ENSt7__cxx1112basic_stringIcSt11char_traitsIcESaIcEEEbb@Base 3.2.0
 _ZN12FileArgumentC1EPKS_@Base 3.2.0
 _ZN12FileArgumentC2ENSt7__cxx1112basic_stringIcSt11char_traitsIcESaIcEEEbb@Base 3.2.0
 _ZN12FileArgumentC2EPKS_@Base 3.2.0
 _ZN12FileArgumentD0Ev@Base 3.2.0
 _ZN12FileArgumentD1Ev@Base 3.2.0
 _ZN12FileArgumentD2Ev@Base 3.2.0
 _ZN12FracFunction9calculateER13MathStructureRKS0_RK17EvaluationOptions@Base 3.2.0
 _ZN12FracFunctionC1Ev@Base 3.2.0
 _ZN12FracFunctionC2Ev@Base 3.2.0
 _ZN12FracFunctionD0Ev@Base 3.2.0
 _ZN12FracFunctionD1Ev@Base 3.2.0
 _ZN12FracFunctionD2Ev@Base 3.2.0
 _ZN12LoadFunction9calculateER13MathStructureRKS0_RK17EvaluationOptions@Base 3.2.0
 _ZN12LoadFunctionC1Ev@Base 3.2.0
 _ZN12LoadFunctionC2Ev@Base 3.2.0
 _ZN12LoadFunctionD0Ev@Base 3.2.0
 _ZN12LoadFunctionD1Ev@Base 3.2.0
 _ZN12LoadFunctionD2Ev@Base 3.2.0
 _ZN12LognFunction9calculateER13MathStructureRKS0_RK17EvaluationOptions@Base 3.2.0
 _ZN12LognFunctionC1Ev@Base 3.2.0
 _ZN12LognFunctionC2Ev@Base 3.2.0
 _ZN12LognFunctionD0Ev@Base 3.2.0
 _ZN12LognFunctionD1Ev@Base 3.2.0
 _ZN12LognFunctionD2Ev@Base 3.2.0
 _ZN12MathFunction10setExampleENSt7__cxx1112basic_stringIcSt11char_traitsIcESaIcEEE@Base 3.2.0
 _ZN12MathFunction10stringArgsERKNSt7__cxx1112basic_stringIcSt11char_traitsIcESaIcEEERSt6vectorIS5_SaIS5_EE@Base 3.2.0
 _ZN12MathFunction12setConditionENSt7__cxx1112basic_stringIcSt11char_traitsIcESaIcEEE@Base 3.2.0
 _ZN12MathFunction13produceVectorERK13MathStructureii@Base 3.2.0
 _ZN12MathFunction13testArgumentsER13MathStructure@Base 3.2.0
 _ZN12MathFunction13testConditionERK13MathStructure@Base 3.2.0
 _ZN12MathFunction14printConditionB5cxx11Ev@Base 3.2.0
 _ZN12MathFunction15setDefaultValueEjNSt7__cxx1112basic_stringIcSt11char_traitsIcESaIcEEE@Base 3.2.0
 _ZN12MathFunction15setDefaultValueEmNSt7__cxx1112basic_stringIcSt11char_traitsIcESaIcEEE@Base 3.2.0
 _ZN12MathFunction17testArgumentCountEi@Base 3.2.0
 _ZN12MathFunction19appendDefaultValuesER13MathStructure@Base 3.2.0
 _ZN12MathFunction21getArgumentDefinitionEj@Base 3.2.0
 _ZN12MathFunction21getArgumentDefinitionEm@Base 3.2.0
 _ZN12MathFunction21setArgumentDefinitionEjP8Argument@Base 3.2.0
 _ZN12MathFunction21setArgumentDefinitionEmP8Argument@Base 3.2.0
 _ZN12MathFunction22produceArgumentsVectorERK13MathStructureii@Base 3.2.0
 _ZN12MathFunction24clearArgumentDefinitionsEv@Base 3.2.0
 _ZN12MathFunction36createFunctionMathStructureFromVArgsERK13MathStructure@Base 3.2.0
 _ZN12MathFunction37createFunctionMathStructureFromSVArgsERSt6vectorINSt7__cxx1112basic_stringIcSt11char_traitsIcESaIcEEESaIS6_EE@Base 3.2.0
 _ZN12MathFunction3setEPK14ExpressionItem@Base 3.2.0
 _ZN12MathFunction4argsERKNSt7__cxx1112basic_stringIcSt11char_traitsIcESaIcEEER13MathStructureRK12ParseOptions@Base 3.2.0
 _ZN12MathFunction5parseER13MathStructureRKNSt7__cxx1112basic_stringIcSt11char_traitsIcESaIcEEERK12ParseOptions@Base 3.2.0
 _ZN12MathFunction5parseERKNSt7__cxx1112basic_stringIcSt11char_traitsIcESaIcEEERK12ParseOptions@Base 3.2.0
 _ZN12MathFunction9calculateER13MathStructureRK17EvaluationOptions@Base 3.2.0
 _ZN12MathFunction9calculateER13MathStructureRKS0_RK17EvaluationOptions@Base 3.2.0
 _ZN12MathFunction9calculateERKNSt7__cxx1112basic_stringIcSt11char_traitsIcESaIcEEERK17EvaluationOptions@Base 3.2.0
 _ZN12MathFunctionC1ENSt7__cxx1112basic_stringIcSt11char_traitsIcESaIcEEEiiS5_S5_S5_b@Base 3.2.0
 _ZN12MathFunctionC1EPKS_@Base 3.2.0
 _ZN12MathFunctionC1Ev@Base 3.2.0
 _ZN12MathFunctionC2ENSt7__cxx1112basic_stringIcSt11char_traitsIcESaIcEEEiiS5_S5_S5_b@Base 3.2.0
 _ZN12MathFunctionC2EPKS_@Base 3.2.0
 _ZN12MathFunctionC2Ev@Base 3.2.0
 _ZN12MathFunctionD0Ev@Base 3.2.0
 _ZN12MathFunctionD1Ev@Base 3.2.0
 _ZN12MathFunctionD2Ev@Base 3.2.0
 _ZN12ModeFunction9calculateER13MathStructureRKS0_RK17EvaluationOptions@Base 3.2.0
 _ZN12ModeFunctionC1Ev@Base 3.2.0
 _ZN12ModeFunctionC2Ev@Base 3.2.0
 _ZN12ModeFunctionD0Ev@Base 3.2.0
 _ZN12ModeFunctionD1Ev@Base 3.2.0
 _ZN12ModeFunctionD2Ev@Base 3.2.0
 _ZN12NumberPrefix8setValueERK6Number@Base 3.2.0
 _ZN12NumberPrefixC1ERK6NumberNSt7__cxx1112basic_stringIcSt11char_traitsIcESaIcEEES8_S8_@Base 3.2.0
 _ZN12NumberPrefixC2ERK6NumberNSt7__cxx1112basic_stringIcSt11char_traitsIcESaIcEEES8_S8_@Base 3.2.0
 _ZN12NumberPrefixD0Ev@Base 3.2.0
 _ZN12NumberPrefixD1Ev@Base 3.2.0
 _ZN12NumberPrefixD2Ev@Base 3.2.0
 _ZN12ParseOptionsC1Ev@Base 3.2.0
 _ZN12ParseOptionsC2Ev@Base 3.2.0
 _ZN12PlotFunction9calculateER13MathStructureRKS0_RK17EvaluationOptions@Base 3.2.0
 _ZN12PlotFunctionC1Ev@Base 3.2.0
 _ZN12PlotFunctionC2Ev@Base 3.2.0
 _ZN12PlotFunctionD0Ev@Base 3.2.0
 _ZN12PlotFunctionD1Ev@Base 3.2.0
 _ZN12PlotFunctionD2Ev@Base 3.2.0
 _ZN12PrintOptionsC1ERKS_@Base 3.2.0
 _ZN12PrintOptionsC1Ev@Base 3.2.0
 _ZN12PrintOptionsC2ERKS_@Base 3.2.0
 _ZN12PrintOptionsC2Ev@Base 3.2.0
 _ZN12PrintOptionsD1Ev@Base 3.2.0
 _ZN12PrintOptionsD2Ev@Base 3.2.0
 _ZN12RandFunction9calculateER13MathStructureRKS0_RK17EvaluationOptions@Base 3.2.0
 _ZN12RandFunctionC1Ev@Base 3.2.0
 _ZN12RandFunctionC2Ev@Base 3.2.0
 _ZN12RandFunctionD0Ev@Base 3.2.0
 _ZN12RandFunctionD1Ev@Base 3.2.0
 _ZN12RandFunctionD2Ev@Base 3.2.0
 _ZN12RankFunction9calculateER13MathStructureRKS0_RK17EvaluationOptions@Base 3.2.0
 _ZN12RankFunctionC1Ev@Base 3.2.0
 _ZN12RankFunctionC2Ev@Base 3.2.0
 _ZN12RankFunctionD0Ev@Base 3.2.0
 _ZN12RankFunctionD1Ev@Base 3.2.0
 _ZN12RankFunctionD2Ev@Base 3.2.0
 _ZN12RootFunction9calculateER13MathStructureRKS0_RK17EvaluationOptions@Base 3.2.0
 _ZN12RootFunctionC1Ev@Base 3.2.0
 _ZN12RootFunctionC2Ev@Base 3.2.0
 _ZN12RootFunctionD0Ev@Base 3.2.0
 _ZN12RootFunctionD1Ev@Base 3.2.0
 _ZN12RootFunctionD2Ev@Base 3.2.0
 _ZN12RowsFunction9calculateER13MathStructureRKS0_RK17EvaluationOptions@Base 3.2.0
 _ZN12RowsFunctionC1Ev@Base 3.2.0
 _ZN12RowsFunctionC2Ev@Base 3.2.0
 _ZN12RowsFunctionD0Ev@Base 3.2.0
 _ZN12RowsFunctionD1Ev@Base 3.2.0
 _ZN12RowsFunctionD2Ev@Base 3.2.0
 _ZN12SaveFunction9calculateER13MathStructureRKS0_RK17EvaluationOptions@Base 3.2.0
 _ZN12SaveFunctionC1Ev@Base 3.2.0
 _ZN12SaveFunctionC2Ev@Base 3.2.0
 _ZN12SaveFunctionD0Ev@Base 3.2.0
 _ZN12SaveFunctionD1Ev@Base 3.2.0
 _ZN12SaveFunctionD2Ev@Base 3.2.0
 _ZN12SincFunction9calculateER13MathStructureRKS0_RK17EvaluationOptions@Base 3.2.0
 _ZN12SincFunctionC1Ev@Base 3.2.0
 _ZN12SincFunctionC2Ev@Base 3.2.0
 _ZN12SincFunctionD0Ev@Base 3.2.0
 _ZN12SincFunctionD1Ev@Base 3.2.0
 _ZN12SincFunctionD2Ev@Base 3.2.0
 _ZN12SinhFunction9calculateER13MathStructureRKS0_RK17EvaluationOptions@Base 3.2.0
 _ZN12SinhFunctionC1Ev@Base 3.2.0
 _ZN12SinhFunctionC2Ev@Base 3.2.0
 _ZN12SinhFunctionD0Ev@Base 3.2.0
 _ZN12SinhFunctionD1Ev@Base 3.2.0
 _ZN12SinhFunctionD2Ev@Base 3.2.0
 _ZN12SortFunction9calculateER13MathStructureRKS0_RK17EvaluationOptions@Base 3.2.0
 _ZN12SortFunctionC1Ev@Base 3.2.0
 _ZN12SortFunctionC2Ev@Base 3.2.0
 _ZN12SortFunctionD0Ev@Base 3.2.0
 _ZN12SortFunctionD1Ev@Base 3.2.0
 _ZN12SortFunctionD2Ev@Base 3.2.0
 _ZN12SqrtFunction9calculateER13MathStructureRKS0_RK17EvaluationOptions@Base 3.2.0
 _ZN12SqrtFunctionC1Ev@Base 3.2.0
 _ZN12SqrtFunctionC2Ev@Base 3.2.0
 _ZN12SqrtFunctionD0Ev@Base 3.2.0
 _ZN12SqrtFunctionD1Ev@Base 3.2.0
 _ZN12SqrtFunctionD2Ev@Base 3.2.0
 _ZN12TanhFunction9calculateER13MathStructureRKS0_RK17EvaluationOptions@Base 3.2.0
 _ZN12TanhFunctionC1Ev@Base 3.2.0
 _ZN12TanhFunctionC2Ev@Base 3.2.0
 _ZN12TanhFunctionD0Ev@Base 3.2.0
 _ZN12TanhFunctionD1Ev@Base 3.2.0
 _ZN12TanhFunctionD2Ev@Base 3.2.0
 _ZN12TextArgumentC1ENSt7__cxx1112basic_stringIcSt11char_traitsIcESaIcEEEbb@Base 3.2.0
 _ZN12TextArgumentC1EPKS_@Base 3.2.0
 _ZN12TextArgumentC2ENSt7__cxx1112basic_stringIcSt11char_traitsIcESaIcEEEbb@Base 3.2.0
 _ZN12TextArgumentC2EPKS_@Base 3.2.0
 _ZN12TextArgumentD0Ev@Base 3.2.0
 _ZN12TextArgumentD1Ev@Base 3.2.0
 _ZN12TextArgumentD2Ev@Base 3.2.0
 _ZN12TimeFunction9calculateER13MathStructureRKS0_RK17EvaluationOptions@Base 3.2.0
 _ZN12TimeFunctionC1Ev@Base 3.2.0
 _ZN12TimeFunctionC2Ev@Base 3.2.0
 _ZN12TimeFunctionD0Ev@Base 3.2.0
 _ZN12TimeFunctionD1Ev@Base 3.2.0
 _ZN12TimeFunctionD2Ev@Base 3.2.0
 _ZN12UnitArgumentC1ENSt7__cxx1112basic_stringIcSt11char_traitsIcESaIcEEEbb@Base 3.2.0
 _ZN12UnitArgumentC1EPKS_@Base 3.2.0
 _ZN12UnitArgumentC2ENSt7__cxx1112basic_stringIcSt11char_traitsIcESaIcEEEbb@Base 3.2.0
 _ZN12UnitArgumentC2EPKS_@Base 3.2.0
 _ZN12UnitArgumentD0Ev@Base 3.2.0
 _ZN12UnitArgumentD1Ev@Base 3.2.0
 _ZN12UnitArgumentD2Ev@Base 3.2.0
 _ZN12UserFunction10setFormulaENSt7__cxx1112basic_stringIcSt11char_traitsIcESaIcEEEii@Base 3.2.0
 _ZN12UserFunction14addSubfunctionENSt7__cxx1112basic_stringIcSt11char_traitsIcESaIcEEEb@Base 3.2.0
 _ZN12UserFunction14delSubfunctionEj@Base 3.2.0
 _ZN12UserFunction14delSubfunctionEm@Base 3.2.0
 _ZN12UserFunction14setSubfunctionEjNSt7__cxx1112basic_stringIcSt11char_traitsIcESaIcEEE@Base 3.2.0
 _ZN12UserFunction14setSubfunctionEmNSt7__cxx1112basic_stringIcSt11char_traitsIcESaIcEEE@Base 3.2.0
 _ZN12UserFunction17clearSubfunctionsEv@Base 3.2.0
 _ZN12UserFunction27setSubfunctionPrecalculatedEmb@Base 3.2.0
 _ZN12UserFunction3setEPK14ExpressionItem@Base 3.2.0
 _ZN12UserFunction9calculateER13MathStructureRKS0_RK17EvaluationOptions@Base 3.2.0
 _ZN12UserFunctionC1ENSt7__cxx1112basic_stringIcSt11char_traitsIcESaIcEEES5_S5_biS5_S5_ib@Base 3.2.0
 _ZN12UserFunctionC1EPKS_@Base 3.2.0
 _ZN12UserFunctionC2ENSt7__cxx1112basic_stringIcSt11char_traitsIcESaIcEEES5_S5_biS5_S5_ib@Base 3.2.0
 _ZN12UserFunctionC2EPKS_@Base 3.2.0
 _ZN12UserFunctionD0Ev@Base 3.2.0
 _ZN12UserFunctionD1Ev@Base 3.2.0
 _ZN12UserFunctionD2Ev@Base 3.2.0
 _ZN12WeekFunction9calculateER13MathStructureRKS0_RK17EvaluationOptions@Base 3.2.0
 _ZN12WeekFunctionC1Ev@Base 3.2.0
 _ZN12WeekFunctionC2Ev@Base 3.2.0
 _ZN12WeekFunctionD0Ev@Base 3.2.0
 _ZN12WeekFunctionD1Ev@Base 3.2.0
 _ZN12WeekFunctionD2Ev@Base 3.2.0
 _ZN12YearFunction9calculateER13MathStructureRKS0_RK17EvaluationOptions@Base 3.2.0
 _ZN12YearFunctionC1Ev@Base 3.2.0
 _ZN12YearFunctionC2Ev@Base 3.2.0
 _ZN12YearFunctionD0Ev@Base 3.2.0
 _ZN12YearFunctionD1Ev@Base 3.2.0
 _ZN12YearFunctionD2Ev@Base 3.2.0
 _ZN12ZetaFunction9calculateER13MathStructureRKS0_RK17EvaluationOptions@Base 3.2.0
 _ZN12ZetaFunctionC1Ev@Base 3.2.0
 _ZN12ZetaFunctionC2Ev@Base 3.2.0
 _ZN12ZetaFunctionD0Ev@Base 3.2.0
 _ZN12ZetaFunctionD1Ev@Base 3.2.0
 _ZN12ZetaFunctionD2Ev@Base 3.2.0
 _ZN13AcoshFunction9calculateER13MathStructureRKS0_RK17EvaluationOptions@Base 3.2.0
 _ZN13AcoshFunctionC1Ev@Base 3.2.0
 _ZN13AcoshFunctionC2Ev@Base 3.2.0
 _ZN13AcoshFunctionD0Ev@Base 3.2.0
 _ZN13AcoshFunctionD1Ev@Base 3.2.0
 _ZN13AcoshFunctionD2Ev@Base 3.2.0
 _ZN13AngleArgumentC1ENSt7__cxx1112basic_stringIcSt11char_traitsIcESaIcEEEbb@Base 3.2.0
 _ZN13AngleArgumentC1EPKS_@Base 3.2.0
 _ZN13AngleArgumentC2ENSt7__cxx1112basic_stringIcSt11char_traitsIcESaIcEEEbb@Base 3.2.0
 _ZN13AngleArgumentC2EPKS_@Base 3.2.0
 _ZN13AngleArgumentD0Ev@Base 3.2.0
 _ZN13AngleArgumentD1Ev@Base 3.2.0
 _ZN13AngleArgumentD2Ev@Base 3.2.0
 _ZN13AsciiFunction9calculateER13MathStructureRKS0_RK17EvaluationOptions@Base 3.2.0
 _ZN13AsciiFunctionC1Ev@Base 3.2.0
 _ZN13AsciiFunctionC2Ev@Base 3.2.0
 _ZN13AsciiFunctionD0Ev@Base 3.2.0
 _ZN13AsciiFunctionD1Ev@Base 3.2.0
 _ZN13AsciiFunctionD2Ev@Base 3.2.0
 _ZN13AsinhFunction9calculateER13MathStructureRKS0_RK17EvaluationOptions@Base 3.2.0
 _ZN13AsinhFunctionC1Ev@Base 3.2.0
 _ZN13AsinhFunctionC2Ev@Base 3.2.0
 _ZN13AsinhFunctionD0Ev@Base 3.2.0
 _ZN13AsinhFunctionD1Ev@Base 3.2.0
 _ZN13AsinhFunctionD2Ev@Base 3.2.0
 _ZN13Atan2Function9calculateER13MathStructureRKS0_RK17EvaluationOptions@Base 3.2.0
 _ZN13Atan2FunctionC1Ev@Base 3.2.0
 _ZN13Atan2FunctionC2Ev@Base 3.2.0
 _ZN13Atan2FunctionD0Ev@Base 3.2.0
 _ZN13Atan2FunctionD1Ev@Base 3.2.0
 _ZN13Atan2FunctionD2Ev@Base 3.2.0
 _ZN13AtanhFunction9calculateER13MathStructureRKS0_RK17EvaluationOptions@Base 3.2.0
 _ZN13AtanhFunctionC1Ev@Base 3.2.0
 _ZN13AtanhFunctionC2Ev@Base 3.2.0
 _ZN13AtanhFunctionD0Ev@Base 3.2.0
 _ZN13AtanhFunctionD1Ev@Base 3.2.0
 _ZN13AtanhFunctionD2Ev@Base 3.2.0
 _ZN13CoeffFunction9calculateER13MathStructureRKS0_RK17EvaluationOptions@Base 3.2.0
 _ZN13CoeffFunctionC1Ev@Base 3.2.0
 _ZN13CoeffFunctionC2Ev@Base 3.2.0
 _ZN13CoeffFunctionD0Ev@Base 3.2.0
 _ZN13CoeffFunctionD1Ev@Base 3.2.0
 _ZN13CoeffFunctionD2Ev@Base 3.2.0
 _ZN13CompositeUnit11setExponentEji@Base 3.2.0
 _ZN13CompositeUnit11setExponentEmi@Base 3.2.0
 _ZN13CompositeUnit17setBaseExpressionENSt7__cxx1112basic_stringIcSt11char_traitsIcESaIcEEE@Base 3.2.0
 _ZN13CompositeUnit3addEP4UnitiP6Prefix@Base 3.2.0
 _ZN13CompositeUnit3delEj@Base 3.2.0
 _ZN13CompositeUnit3delEm@Base 3.2.0
 _ZN13CompositeUnit3setEPK14ExpressionItem@Base 3.2.0
 _ZN13CompositeUnit5clearEv@Base 3.2.0
 _ZN13CompositeUnit9setPrefixEjP6Prefix@Base 3.2.0
 _ZN13CompositeUnit9setPrefixEmP6Prefix@Base 3.2.0
 _ZN13CompositeUnitC1ENSt7__cxx1112basic_stringIcSt11char_traitsIcESaIcEEES5_S5_S5_bbb@Base 3.2.0
 _ZN13CompositeUnitC1EPKS_@Base 3.2.0
 _ZN13CompositeUnitC2ENSt7__cxx1112basic_stringIcSt11char_traitsIcESaIcEEES5_S5_S5_bbb@Base 3.2.0
 _ZN13CompositeUnitC2EPKS_@Base 3.2.0
 _ZN13CompositeUnitD0Ev@Base 3.2.0
 _ZN13CompositeUnitD1Ev@Base 3.2.0
 _ZN13CompositeUnitD2Ev@Base 3.2.0
 _ZN13DecimalPrefix11setExponentEi@Base 3.2.0
 _ZN13DecimalPrefixC1EiNSt7__cxx1112basic_stringIcSt11char_traitsIcESaIcEEES5_S5_@Base 3.2.0
 _ZN13DecimalPrefixC2EiNSt7__cxx1112basic_stringIcSt11char_traitsIcESaIcEEES5_S5_@Base 3.2.0
 _ZN13DecimalPrefixD0Ev@Base 3.2.0
 _ZN13DecimalPrefixD1Ev@Base 3.2.0
 _ZN13DecimalPrefixD2Ev@Base 3.2.0
 _ZN13DiracFunction9calculateER13MathStructureRKS0_RK17EvaluationOptions@Base 3.2.0
 _ZN13DiracFunctionC1Ev@Base 3.2.0
 _ZN13DiracFunctionC2Ev@Base 3.2.0
 _ZN13DiracFunctionD0Ev@Base 3.2.0
 _ZN13DiracFunctionD1Ev@Base 3.2.0
 _ZN13DiracFunctionD2Ev@Base 3.2.0
 _ZN13ErrorFunction9calculateER13MathStructureRKS0_RK17EvaluationOptions@Base 3.2.0
 _ZN13ErrorFunctionC1Ev@Base 3.2.0
 _ZN13ErrorFunctionC2Ev@Base 3.2.0
 _ZN13ErrorFunctionD0Ev@Base 3.2.0
 _ZN13ErrorFunctionD1Ev@Base 3.2.0
 _ZN13ErrorFunctionD2Ev@Base 3.2.0
 _ZN13EulerVariableC1Ev@Base 3.2.0
 _ZN13EulerVariableC2Ev@Base 3.2.0
 _ZN13EulerVariableD0Ev@Base 3.2.0
 _ZN13EulerVariableD1Ev@Base 3.2.0
 _ZN13EulerVariableD2Ev@Base 3.2.0
 _ZN13FloorFunction9calculateER13MathStructureRKS0_RK17EvaluationOptions@Base 3.2.0
 _ZN13FloorFunctionC1Ev@Base 3.2.0
 _ZN13FloorFunctionC2Ev@Base 3.2.0
 _ZN13FloorFunctionD0Ev@Base 3.2.0
 _ZN13FloorFunctionD1Ev@Base 3.2.0
 _ZN13FloorFunctionD2Ev@Base 3.2.0
 _ZN13GammaFunction9calculateER13MathStructureRKS0_RK17EvaluationOptions@Base 3.2.0
 _ZN13GammaFunctionC1Ev@Base 3.2.0
 _ZN13GammaFunctionC2Ev@Base 3.2.0
 _ZN13GammaFunctionD0Ev@Base 3.2.0
 _ZN13GammaFunctionD1Ev@Base 3.2.0
 _ZN13GammaFunctionD2Ev@Base 3.2.0
 _ZN13KnownVariable13representsOddEb@Base 3.2.0
 _ZN13KnownVariable14representsEvenEb@Base 3.2.0
 _ZN13KnownVariable14representsRealEb@Base 3.2.0
 _ZN13KnownVariable14setUncertaintyENSt7__cxx1112basic_stringIcSt11char_traitsIcESaIcEEEb@Base 3.2.0
 _ZN13KnownVariable16representsNumberEb@Base 3.2.0
 _ZN13KnownVariable16representsScalarEv@Base 3.2.0
 _ZN13KnownVariable17representsBooleanEv@Base 3.2.0
 _ZN13KnownVariable17representsComplexEb@Base 3.2.0
 _ZN13KnownVariable17representsIntegerEb@Base 3.2.0
 _ZN13KnownVariable17representsNonZeroEb@Base 3.2.0
 _ZN13KnownVariable18representsFractionEb@Base 3.2.0
 _ZN13KnownVariable18representsNegativeEb@Base 3.2.0
 _ZN13KnownVariable18representsPositiveEb@Base 3.2.0
 _ZN13KnownVariable18representsRationalEb@Base 3.2.0
 _ZN13KnownVariable19representsNonMatrixEv@Base 3.2.0
 _ZN13KnownVariable19representsUndefinedEbbb@Base 3.2.0
 _ZN13KnownVariable20representsNonComplexEb@Base 3.2.0
 _ZN13KnownVariable20representsNonIntegerEb@Base 3.2.0
 _ZN13KnownVariable21representsNonNegativeEb@Base 3.2.0
 _ZN13KnownVariable21representsNonPositiveEb@Base 3.2.0
 _ZN13KnownVariable3getEv@Base 3.2.0
 _ZN13KnownVariable3setENSt7__cxx1112basic_stringIcSt11char_traitsIcESaIcEEE@Base 3.2.0
 _ZN13KnownVariable3setEPK14ExpressionItem@Base 3.2.0
 _ZN13KnownVariable3setERK13MathStructure@Base 3.2.0
 _ZN13KnownVariable7setUnitENSt7__cxx1112basic_stringIcSt11char_traitsIcESaIcEEE@Base 3.2.0
 _ZN13KnownVariableC1ENSt7__cxx1112basic_stringIcSt11char_traitsIcESaIcEEES5_RK13MathStructureS5_bbb@Base 3.2.0
 _ZN13KnownVariableC1ENSt7__cxx1112basic_stringIcSt11char_traitsIcESaIcEEES5_S5_S5_bbb@Base 3.2.0
 _ZN13KnownVariableC1EPKS_@Base 3.2.0
 _ZN13KnownVariableC1Ev@Base 3.2.0
 _ZN13KnownVariableC2ENSt7__cxx1112basic_stringIcSt11char_traitsIcESaIcEEES5_RK13MathStructureS5_bbb@Base 3.2.0
 _ZN13KnownVariableC2ENSt7__cxx1112basic_stringIcSt11char_traitsIcESaIcEEES5_S5_S5_bbb@Base 3.2.0
 _ZN13KnownVariableC2EPKS_@Base 3.2.0
 _ZN13KnownVariableC2Ev@Base 3.2.0
 _ZN13KnownVariableD0Ev@Base 3.2.0
 _ZN13KnownVariableD1Ev@Base 3.2.0
 _ZN13KnownVariableD2Ev@Base 3.2.0
 _ZN13LimitFunction9calculateER13MathStructureRKS0_RK17EvaluationOptions@Base 3.2.0
 _ZN13LimitFunctionC1Ev@Base 3.2.0
 _ZN13LimitFunctionC2Ev@Base 3.2.0
 _ZN13LimitFunctionD0Ev@Base 3.2.0
 _ZN13LimitFunctionD1Ev@Base 3.2.0
 _ZN13LimitFunctionD2Ev@Base 3.2.0
 _ZN13MathStructure10addColumnsEjRKS_@Base 3.2.0
 _ZN13MathStructure10addColumnsEmRKS_@Base 3.2.0
 _ZN13MathStructure10add_nocopyEPS_13MathOperationb@Base 3.2.0
 _ZN13MathStructure10add_nocopyEPS_b@Base 3.2.0
 _ZN13MathStructure10getElementEjj@Base 3.2.0
 _ZN13MathStructure10getElementEmm@Base 3.2.0
 _ZN13MathStructure10rankVectorEb@Base 3.2.0
 _ZN13MathStructure10removeTypeE13StructureType@Base 3.2.0
 _ZN13MathStructure10setAbortedEb@Base 3.2.0
 _ZN13MathStructure10setElementERKS_jj@Base 3.2.0
 _ZN13MathStructure10setElementERKS_mm@Base 3.2.0
 _ZN13MathStructure10setToChildEjbPS_j@Base 3.2.0
 _ZN13MathStructure10setToChildEmbPS_m@Base 3.2.0
 _ZN13MathStructure10set_nocopyERS_b@Base 3.2.0
 _ZN13MathStructure10sortVectorEb@Base 3.2.0
 _ZN13MathStructure11clearMatrixEb@Base 3.2.0
 _ZN13MathStructure11clearVectorEb@Base 3.2.0
 _ZN13MathStructure11insertChildERKS_j@Base 3.2.0
 _ZN13MathStructure11insertChildERKS_m@Base 3.2.0
 _ZN13MathStructure11merge_powerERS_RK17EvaluationOptionsPS_jjb@Base 3.2.0
 _ZN13MathStructure11merge_powerERS_RK17EvaluationOptionsPS_mmb@Base 3.2.0
 _ZN13MathStructure11setFunctionEP12MathFunction@Base 3.2.0
 _ZN13MathStructure11setPrefixesERK12PrintOptionsPS_j@Base 3.2.0
 _ZN13MathStructure11setPrefixesERK12PrintOptionsPS_m@Base 3.2.0
 _ZN13MathStructure11setVariableEP8Variable@Base 3.2.0
 _ZN13MathStructure12calculateAddERKS_RK17EvaluationOptionsPS_j@Base 3.2.0
 _ZN13MathStructure12calculateAddERKS_RK17EvaluationOptionsPS_m@Base 3.2.0
 _ZN13MathStructure12calculatesubERK17EvaluationOptionsS2_bPS_j@Base 3.2.0
 _ZN13MathStructure12calculatesubERK17EvaluationOptionsS2_bPS_m@Base 3.2.0
 _ZN13MathStructure12childToFrontEj@Base 3.2.0
 _ZN13MathStructure12childToFrontEm@Base 3.2.0
 _ZN13MathStructure12childUpdatedEjb@Base 3.2.0
 _ZN13MathStructure12childUpdatedEmb@Base 3.2.0
 _ZN13MathStructure12invertMatrixERK17EvaluationOptions@Base 3.2.0
 _ZN13MathStructure12raise_nocopyEPS_@Base 3.2.0
 _ZN13MathStructure12resizeMatrixEjjRKS_@Base 3.2.0
 _ZN13MathStructure12resizeMatrixEmmRKS_@Base 3.2.0
 _ZN13MathStructure12resizeVectorEjRKS_@Base 3.2.0
 _ZN13MathStructure12resizeVectorEmRKS_@Base 3.2.0
 _ZN13MathStructure12setPrecisionEib@Base 3.2.0
 _ZN13MathStructure12setProtectedEb@Base 3.2.0
 _ZN13MathStructure12setUndefinedEb@Base 3.2.0
 _ZN13MathStructure12swapChildrenEjj@Base 3.2.0
 _ZN13MathStructure12swapChildrenEmm@Base 3.2.0
 _ZN13MathStructure13adjointMatrixERK17EvaluationOptions@Base 3.2.0
 _ZN13MathStructure13differentiateERKS_RK17EvaluationOptions@Base 3.2.0
 _ZN13MathStructure13divide_nocopyEPS_b@Base 3.2.0
 _ZN13MathStructure13isolate_x_subERK17EvaluationOptionsRS0_RKS_PS_@Base 3.2.0
 _ZN13MathStructure13mergeIntervalERKS_b@Base 3.2.0
 _ZN13MathStructure13numberUpdatedEv@Base 3.2.0
 _ZN13MathStructure13setBitwiseNotEv@Base 3.2.0
 _ZN13MathStructure13setLogicalNotEv@Base 3.2.0
 _ZN13MathStructure14calculateLimitERKS_S1_RK17EvaluationOptionsi@Base 3.2.0
 _ZN13MathStructure14calculateRaiseERKS_RK17EvaluationOptionsPS_m@Base 3.2.0
 _ZN13MathStructure14factorizeUnitsEv@Base 3.2.0
 _ZN13MathStructure14maxCoefficientEv@Base 3.2.0
 _ZN13MathStructure14mergePrecisionERKS_@Base 3.2.0
 _ZN13MathStructure14mergePrecisionEbi@Base 3.2.0
 _ZN13MathStructure14merge_additionERS_RK17EvaluationOptionsPS_mmb@Base 3.2.0
 _ZN13MathStructure14setApproximateEbb@Base 3.2.0
 _ZN13MathStructure15addChild_nocopyEPS_@Base 3.2.0
 _ZN13MathStructure15calculateDivideERKS_RK17EvaluationOptionsPS_m@Base 3.2.0
 _ZN13MathStructure15calculateNegateERK17EvaluationOptionsPS_m@Base 3.2.0
 _ZN13MathStructure15childrenUpdatedEb@Base 3.2.0
 _ZN13MathStructure15findAllUnknownsERS_@Base 3.2.0
 _ZN13MathStructure15multiply_nocopyEPS_b@Base 3.2.0
 _ZN13MathStructure15postFormatUnitsERK12PrintOptionsPS_m@Base 3.2.0
 _ZN13MathStructure15setChild_nocopyEPS_mb@Base 3.2.0
 _ZN13MathStructure15subtract_nocopyEPS_b@Base 3.2.0
 _ZN13MathStructure15transposeMatrixEv@Base 3.2.0
 _ZN13MathStructure16calculateAddLastERK17EvaluationOptionsbPS_m@Base 3.2.0
 _ZN13MathStructure16calculateInverseERK17EvaluationOptionsPS_m@Base 3.2.0
 _ZN13MathStructure16calculateReplaceERKS_S1_RK17EvaluationOptionsb@Base 3.2.0
 _ZN13MathStructure16integerFactorizeEv@Base 3.2.0
 _ZN13MathStructure16merge_bitwise_orERS_RK17EvaluationOptionsPS_mmb@Base 3.2.0
 _ZN13MathStructure16merge_logical_orERS_RK17EvaluationOptionsPS_mmb@Base 3.2.0
 _ZN13MathStructure16polynomialDivideERKS_S1_RS_RK17EvaluationOptionsb@Base 3.2.0
 _ZN13MathStructure16prefixCurrenciesERK12PrintOptions@Base 3.2.0
 _ZN13MathStructure16setInParenthesesEb@Base 3.2.0
 _ZN13MathStructure16setPrefixForUnitEP4UnitP6Prefix@Base 3.2.0
 _ZN13MathStructure16transform_nocopyE13StructureTypePS_@Base 3.2.0
 _ZN13MathStructure17calculateAddIndexEmRK17EvaluationOptionsbPS_m@Base 3.2.0
 _ZN13MathStructure17calculateMultiplyERKS_RK17EvaluationOptionsPS_m@Base 3.2.0
 _ZN13MathStructure17calculateSubtractERKS_RK17EvaluationOptionsPS_m@Base 3.2.0
 _ZN13MathStructure17merge_bitwise_andERS_RK17EvaluationOptionsPS_mmb@Base 3.2.0
 _ZN13MathStructure17merge_bitwise_xorERS_RK17EvaluationOptionsPS_mmb@Base 3.2.0
 _ZN13MathStructure17merge_logical_andERS_RK17EvaluationOptionsPS_mmb@Base 3.2.0
 _ZN13MathStructure17merge_logical_xorERS_RK17EvaluationOptionsPS_mmb@Base 3.2.0
 _ZN13MathStructure17setComparisonTypeE14ComparisonType@Base 3.2.0
 _ZN13MathStructure17testCompositeUnitEP4Unit@Base 3.2.0
 _ZN13MathStructure18calculateBitwiseOrERKS_RK17EvaluationOptionsPS_m@Base 3.2.0
 _ZN13MathStructure18calculateFunctionsERK17EvaluationOptionsbb@Base 3.2.0
 _ZN13MathStructure18calculateLogicalOrERKS_RK17EvaluationOptionsPS_m@Base 3.2.0
 _ZN13MathStructure18complexToPolarFormERK17EvaluationOptions@Base 3.2.0
 _ZN13MathStructure18convertToBaseUnitsEbPbbRK17EvaluationOptionsb@Base 3.2.0
 _ZN13MathStructure18decomposeFractionsERKS_RK17EvaluationOptions@Base 3.2.0
 _ZN13MathStructure18insertChild_nocopyEPS_m@Base 3.2.0
 _ZN13MathStructure18polynomialQuotientERKS_S1_S1_RS_RK17EvaluationOptionsb@Base 3.2.0
 _ZN13MathStructure19calculateBitwiseAndERKS_RK17EvaluationOptionsPS_m@Base 3.2.0
 _ZN13MathStructure19calculateBitwiseNotERK17EvaluationOptionsPS_m@Base 3.2.0
 _ZN13MathStructure19calculateBitwiseXorERKS_RK17EvaluationOptionsPS_m@Base 3.2.0
 _ZN13MathStructure19calculateLogicalAndERKS_RK17EvaluationOptionsPS_m@Base 3.2.0
 _ZN13MathStructure19calculateLogicalNotERK17EvaluationOptionsPS_m@Base 3.2.0
 _ZN13MathStructure19calculateLogicalXorERKS_RK17EvaluationOptionsPS_m@Base 3.2.0
 _ZN13MathStructure19calculateMergeIndexEmRK17EvaluationOptionsS2_PS_m@Base 3.2.0
 _ZN13MathStructure19gaussianEliminationERK17EvaluationOptionsb@Base 3.2.0
 _ZN13MathStructure19setToIdentityMatrixEm@Base 3.2.0
 _ZN13MathStructure20merge_multiplicationERS_RK17EvaluationOptionsPS_mmbb@Base 3.2.0
 _ZN13MathStructure21calculateMultiplyLastERK17EvaluationOptionsbPS_m@Base 3.2.0
 _ZN13MathStructure22calculateBitwiseOrLastERK17EvaluationOptionsbPS_m@Base 3.2.0
 _ZN13MathStructure22calculateLogicalOrLastERK17EvaluationOptionsbPS_m@Base 3.2.0
 _ZN13MathStructure22calculateMultiplyIndexEmRK17EvaluationOptionsbPS_m@Base 3.2.0
 _ZN13MathStructure22calculateRaiseExponentERK17EvaluationOptionsPS_m@Base 3.2.0
 _ZN13MathStructure22expandPartialFractionsERK17EvaluationOptions@Base 3.2.0
 _ZN13MathStructure22removeDefaultAngleUnitERK17EvaluationOptions@Base 3.2.0
 _ZN13MathStructure23calculateBitwiseAndLastERK17EvaluationOptionsbPS_m@Base 3.2.0
 _ZN13MathStructure23calculateBitwiseOrIndexEmRK17EvaluationOptionsbPS_m@Base 3.2.0
 _ZN13MathStructure23calculateBitwiseXorLastERK17EvaluationOptionsbPS_m@Base 3.2.0
 _ZN13MathStructure23calculateLogicalAndLastERK17EvaluationOptionsbPS_m@Base 3.2.0
 _ZN13MathStructure23calculateLogicalOrIndexEmRK17EvaluationOptionsbPS_m@Base 3.2.0
 _ZN13MathStructure23calculateLogicalXorLastERK17EvaluationOptionsPS_m@Base 3.2.0
 _ZN13MathStructure24calculateBitwiseAndIndexEmRK17EvaluationOptionsbPS_m@Base 3.2.0
 _ZN13MathStructure24calculateBitwiseXorIndexEmRK17EvaluationOptionsbPS_m@Base 3.2.0
 _ZN13MathStructure24calculateLogicalAndIndexEmRK17EvaluationOptionsbPS_m@Base 3.2.0
 _ZN13MathStructure24complexToExponentialFormERK17EvaluationOptions@Base 3.2.0
 _ZN13MathStructure25dissolveAllCompositeUnitsEv@Base 3.2.0
 _ZN13MathStructure25testDissolveCompositeUnitEP4Unit@Base 3.2.0
 _ZN13MathStructure28improve_division_multipliersERK12PrintOptionsPS_@Base 3.2.0
 _ZN13MathStructure3addENSt7__cxx1112basic_stringIcSt11char_traitsIcESaIcEEEb@Base 3.2.0
 _ZN13MathStructure3addEP4Unitb@Base 3.2.0
 _ZN13MathStructure3addEP8Variableb@Base 3.2.0
 _ZN13MathStructure3addERK6Numberb@Base 3.2.0
 _ZN13MathStructure3addERKS_13MathOperationb@Base 3.2.0
 _ZN13MathStructure3addERKS_b@Base 3.2.0
 _ZN13MathStructure3addEib@Base 3.2.0
 _ZN13MathStructure3gcdERKS_S1_RS_RK17EvaluationOptionsPS_S6_b@Base 3.2.0
 _ZN13MathStructure3lcmERKS_S1_RS_RK17EvaluationOptionsb@Base 3.2.0
 _ZN13MathStructure3refEv@Base 3.2.0
 _ZN13MathStructure3setENSt7__cxx1112basic_stringIcSt11char_traitsIcESaIcEEEbb@Base 3.2.0
 _ZN13MathStructure3setEP12MathFunctionz@Base 3.2.0
 _ZN13MathStructure3setEP4UnitP6Prefixb@Base 3.2.0
 _ZN13MathStructure3setEP8Variableb@Base 3.2.0
 _ZN13MathStructure3setERK17QalculateDateTimeb@Base 3.2.0
 _ZN13MathStructure3setERK6Numberb@Base 3.2.0
 _ZN13MathStructure3setERKS_b@Base 3.2.0
 _ZN13MathStructure3setEdb@Base 3.2.0
 _ZN13MathStructure3setEiiib@Base 3.2.0
 _ZN13MathStructure3setElllb@Base 3.2.0
 _ZN13MathStructure4baseEv@Base 3.2.0
 _ZN13MathStructure4evalERK17EvaluationOptions@Base 3.2.0
 _ZN13MathStructure4lastEv@Base 3.2.0
 _ZN13MathStructure4sortERK12PrintOptionsb@Base 3.2.0
 _ZN13MathStructure5clearEb@Base 3.2.0
 _ZN13MathStructure5pivotEmmb@Base 3.2.0
 _ZN13MathStructure5raiseENSt7__cxx1112basic_stringIcSt11char_traitsIcESaIcEEE@Base 3.2.0
 _ZN13MathStructure5raiseEP4Unit@Base 3.2.0
 _ZN13MathStructure5raiseEP8Variable@Base 3.2.0
 _ZN13MathStructure5raiseERK6Number@Base 3.2.0
 _ZN13MathStructure5raiseERKS_@Base 3.2.0
 _ZN13MathStructure5raiseEi@Base 3.2.0
 _ZN13MathStructure5unrefEv@Base 3.2.0
 _ZN13MathStructure6addRowERKS_@Base 3.2.0
 _ZN13MathStructure6divideENSt7__cxx1112basic_stringIcSt11char_traitsIcESaIcEEEb@Base 3.2.0
 _ZN13MathStructure6divideEP4Unitb@Base 3.2.0
 _ZN13MathStructure6divideEP8Variableb@Base 3.2.0
 _ZN13MathStructure6divideERK6Numberb@Base 3.2.0
 _ZN13MathStructure6divideERKS_b@Base 3.2.0
 _ZN13MathStructure6divideEib@Base 3.2.0
 _ZN13MathStructure6expandERK17EvaluationOptionsb@Base 3.2.0
 _ZN13MathStructure6formatERK12PrintOptions@Base 3.2.0
 _ZN13MathStructure6negateEv@Base 3.2.0
 _ZN13MathStructure6numberEv@Base 3.2.0
 _ZN13MathStructure7addRowsEmRKS_@Base 3.2.0
 _ZN13MathStructure7convertEP4UnitbPbbRK17EvaluationOptionsP6Prefix@Base 3.2.0
 _ZN13MathStructure7convertES_bPbbRK17EvaluationOptions@Base 3.2.0
 _ZN13MathStructure7inverseEv@Base 3.2.0
 _ZN13MathStructure7replaceEP8VariableRKS_@Base 3.2.0
 _ZN13MathStructure7replaceERKS_S1_S1_S1_@Base 3.2.0
 _ZN13MathStructure7replaceERKS_S1_bb@Base 3.2.0
 _ZN13MathStructure7setTypeE13StructureType@Base 3.2.0
 _ZN13MathStructure7setUnitEP4Unit@Base 3.2.0
 _ZN13MathStructure8addChildERKS_@Base 3.2.0
 _ZN13MathStructure8datetimeEv@Base 3.2.0
 _ZN13MathStructure8delChildEmb@Base 3.2.0
 _ZN13MathStructure8evalSortEbb@Base 3.2.0
 _ZN13MathStructure8exponentEv@Base 3.2.0
 _ZN13MathStructure8getChildEm@Base 3.2.0
 _ZN13MathStructure8multiplyENSt7__cxx1112basic_stringIcSt11char_traitsIcESaIcEEEb@Base 3.2.0
 _ZN13MathStructure8multiplyEP4Unitb@Base 3.2.0
 _ZN13MathStructure8multiplyEP8Variableb@Base 3.2.0
 _ZN13MathStructure8multiplyERK6Numberb@Base 3.2.0
 _ZN13MathStructure8multiplyERKS_b@Base 3.2.0
 _ZN13MathStructure8multiplyEib@Base 3.2.0
 _ZN13MathStructure8setChildERKS_mb@Base 3.2.0
 _ZN13MathStructure8simplifyERK17EvaluationOptionsb@Base 3.2.0
 _ZN13MathStructure8subtractENSt7__cxx1112basic_stringIcSt11char_traitsIcESaIcEEEb@Base 3.2.0
 _ZN13MathStructure8subtractEP4Unitb@Base 3.2.0
 _ZN13MathStructure8subtractEP8Variableb@Base 3.2.0
 _ZN13MathStructure8subtractERK6Numberb@Base 3.2.0
 _ZN13MathStructure8subtractERKS_b@Base 3.2.0
 _ZN13MathStructure8subtractEib@Base 3.2.0
 _ZN13MathStructure8unformatERK17EvaluationOptions@Base 3.2.0
 _ZN13MathStructure9addColumnERKS_@Base 3.2.0
 _ZN13MathStructure9factorizeERK17EvaluationOptionsbiibiP7timevalRKS_bbi@Base 3.2.0
 _ZN13MathStructure9formatsubERK12PrintOptionsPS_mbS3_@Base 3.2.0
 _ZN13MathStructure9integrateERKS_RK17EvaluationOptionsbibbiPSt6vectorIPS_SaIS6_EE@Base 3.2.0
 _ZN13MathStructure9isolate_xERK17EvaluationOptionsRKS_b@Base 3.2.0
 _ZN13MathStructure9isolate_xERK17EvaluationOptionsS2_RKS_b@Base 3.2.0
 _ZN13MathStructure9setPluralEb@Base 3.2.0
 _ZN13MathStructure9setPrefixEP6Prefix@Base 3.2.0
 _ZN13MathStructure9setVectorEPKS_z@Base 3.2.0
 _ZN13MathStructure9structureE15StructuringModeRK17EvaluationOptionsb@Base 3.2.0
 _ZN13MathStructure9syncUnitsEbPbbRK17EvaluationOptions@Base 3.2.0
 _ZN13MathStructure9transformE13StructureType@Base 3.2.0
 _ZN13MathStructure9transformE13StructureTypeNSt7__cxx1112basic_stringIcSt11char_traitsIcESaIcEEE@Base 3.2.0
 _ZN13MathStructure9transformE13StructureTypeP4Unit@Base 3.2.0
 _ZN13MathStructure9transformE13StructureTypeP8Variable@Base 3.2.0
 _ZN13MathStructure9transformE13StructureTypeRK6Number@Base 3.2.0
 _ZN13MathStructure9transformE13StructureTypeRKS_@Base 3.2.0
 _ZN13MathStructure9transformE13StructureTypei@Base 3.2.0
 _ZN13MathStructure9transformE14ComparisonTypeRKS_@Base 3.2.0
 _ZN13MathStructure9transformEP12MathFunction@Base 3.2.0
 _ZN13MathStructureC1ENSt7__cxx1112basic_stringIcSt11char_traitsIcESaIcEEEb@Base 3.2.0
 _ZN13MathStructureC1EP12MathFunctionz@Base 3.2.0
 _ZN13MathStructureC1EP4UnitP6Prefix@Base 3.2.0
 _ZN13MathStructureC1EP8Variable@Base 3.2.0
 _ZN13MathStructureC1EPKS_z@Base 3.2.0
 _ZN13MathStructureC1ERK17QalculateDateTime@Base 3.2.0
 _ZN13MathStructureC1ERK6Number@Base 3.2.0
 _ZN13MathStructureC1ERKS_@Base 3.2.0
 _ZN13MathStructureC1Ed@Base 3.2.0
 _ZN13MathStructureC1Eiii@Base 3.2.0
 _ZN13MathStructureC1Elll@Base 3.2.0
 _ZN13MathStructureC1Ev@Base 3.2.0
 _ZN13MathStructureC2ENSt7__cxx1112basic_stringIcSt11char_traitsIcESaIcEEEb@Base 3.2.0
 _ZN13MathStructureC2EP12MathFunctionz@Base 3.2.0
 _ZN13MathStructureC2EP4UnitP6Prefix@Base 3.2.0
 _ZN13MathStructureC2EP8Variable@Base 3.2.0
 _ZN13MathStructureC2EPKS_z@Base 3.2.0
 _ZN13MathStructureC2ERK17QalculateDateTime@Base 3.2.0
 _ZN13MathStructureC2ERK6Number@Base 3.2.0
 _ZN13MathStructureC2ERKS_@Base 3.2.0
 _ZN13MathStructureC2Ed@Base 3.2.0
 _ZN13MathStructureC2Eiii@Base 3.2.0
 _ZN13MathStructureC2Elll@Base 3.2.0
 _ZN13MathStructureC2Ev@Base 3.2.0
 _ZN13MathStructureD1Ev@Base 3.2.0
 _ZN13MathStructureD2Ev@Base 3.2.0
 _ZN13MathStructureaSENSt7__cxx1112basic_stringIcSt11char_traitsIcESaIcEEE@Base 3.2.0
 _ZN13MathStructureaSEP4Unit@Base 3.2.0
 _ZN13MathStructureaSEP8Variable@Base 3.2.0
 _ZN13MathStructureaSERK6Number@Base 3.2.0
 _ZN13MathStructureaSERKS_@Base 3.2.0
 _ZN13MathStructureaSEi@Base 3.2.0
 _ZN13MathStructuredVENSt7__cxx1112basic_stringIcSt11char_traitsIcESaIcEEE@Base 3.2.0
 _ZN13MathStructuredVEP4Unit@Base 3.2.0
 _ZN13MathStructuredVEP8Variable@Base 3.2.0
 _ZN13MathStructuredVERK6Number@Base 3.2.0
 _ZN13MathStructuredVERKS_@Base 3.2.0
 _ZN13MathStructuredVEi@Base 3.2.0
 _ZN13MathStructureeOENSt7__cxx1112basic_stringIcSt11char_traitsIcESaIcEEE@Base 3.2.0
 _ZN13MathStructureeOEP4Unit@Base 3.2.0
 _ZN13MathStructureeOEP8Variable@Base 3.2.0
 _ZN13MathStructureeOERK6Number@Base 3.2.0
 _ZN13MathStructureeOERKS_@Base 3.2.0
 _ZN13MathStructureeOEi@Base 3.2.0
 _ZN13MathStructureixEm@Base 3.2.0
 _ZN13MathStructuremIENSt7__cxx1112basic_stringIcSt11char_traitsIcESaIcEEE@Base 3.2.0
 _ZN13MathStructuremIEP4Unit@Base 3.2.0
 _ZN13MathStructuremIEP8Variable@Base 3.2.0
 _ZN13MathStructuremIERK6Number@Base 3.2.0
 _ZN13MathStructuremIERKS_@Base 3.2.0
 _ZN13MathStructuremIEi@Base 3.2.0
 _ZN13MathStructuremLENSt7__cxx1112basic_stringIcSt11char_traitsIcESaIcEEE@Base 3.2.0
 _ZN13MathStructuremLEP4Unit@Base 3.2.0
 _ZN13MathStructuremLEP8Variable@Base 3.2.0
 _ZN13MathStructuremLERK6Number@Base 3.2.0
 _ZN13MathStructuremLERKS_@Base 3.2.0
 _ZN13MathStructuremLEi@Base 3.2.0
 _ZN13MathStructurepLENSt7__cxx1112basic_stringIcSt11char_traitsIcESaIcEEE@Base 3.2.0
 _ZN13MathStructurepLEP4Unit@Base 3.2.0
 _ZN13MathStructurepLEP8Variable@Base 3.2.0
 _ZN13MathStructurepLERK6Number@Base 3.2.0
 _ZN13MathStructurepLERKS_@Base 3.2.0
 _ZN13MathStructurepLEi@Base 3.2.0
 _ZN13MonthFunction9calculateER13MathStructureRKS0_RK17EvaluationOptions@Base 3.2.0
 _ZN13MonthFunctionC1Ev@Base 3.2.0
 _ZN13MonthFunctionC2Ev@Base 3.2.0
 _ZN13MonthFunctionD0Ev@Base 3.2.0
 _ZN13MonthFunctionD1Ev@Base 3.2.0
 _ZN13MonthFunctionD2Ev@Base 3.2.0
 _ZN13RomanFunction9calculateER13MathStructureRKS0_RK17EvaluationOptions@Base 3.2.0
 _ZN13RomanFunctionC1Ev@Base 3.2.0
 _ZN13RomanFunctionC2Ev@Base 3.2.0
 _ZN13RomanFunctionD0Ev@Base 3.2.0
 _ZN13RomanFunctionD1Ev@Base 3.2.0
 _ZN13RomanFunctionD2Ev@Base 3.2.0
 _ZN13RoundFunction9calculateER13MathStructureRKS0_RK17EvaluationOptions@Base 3.2.0
 _ZN13RoundFunctionC1Ev@Base 3.2.0
 _ZN13RoundFunctionC2Ev@Base 3.2.0
 _ZN13RoundFunctionD0Ev@Base 3.2.0
 _ZN13RoundFunctionD1Ev@Base 3.2.0
 _ZN13RoundFunctionD2Ev@Base 3.2.0
 _ZN13ShiftFunction9calculateER13MathStructureRKS0_RK17EvaluationOptions@Base 3.2.0
 _ZN13ShiftFunctionC1Ev@Base 3.2.0
 _ZN13ShiftFunctionC2Ev@Base 3.2.0
 _ZN13ShiftFunctionD0Ev@Base 3.2.0
 _ZN13ShiftFunctionD1Ev@Base 3.2.0
 _ZN13ShiftFunctionD2Ev@Base 3.2.0
 _ZN13SolveFunction9calculateER13MathStructureRKS0_RK17EvaluationOptions@Base 3.2.0
 _ZN13SolveFunctionC1Ev@Base 3.2.0
 _ZN13SolveFunctionC2Ev@Base 3.2.0
 _ZN13SolveFunctionD0Ev@Base 3.2.0
 _ZN13SolveFunctionD1Ev@Base 3.2.0
 _ZN13SolveFunctionD2Ev@Base 3.2.0
 _ZN13StackFunction9calculateER13MathStructureRKS0_RK17EvaluationOptions@Base 3.2.0
 _ZN13StackFunctionC1Ev@Base 3.2.0
 _ZN13StackFunctionC2Ev@Base 3.2.0
 _ZN13StackFunctionD0Ev@Base 3.2.0
 _ZN13StackFunctionD1Ev@Base 3.2.0
 _ZN13StackFunctionD2Ev@Base 3.2.0
 _ZN13TitleFunction9calculateER13MathStructureRKS0_RK17EvaluationOptions@Base 3.2.0
 _ZN13TitleFunctionC1Ev@Base 3.2.0
 _ZN13TitleFunctionC2Ev@Base 3.2.0
 _ZN13TitleFunctionD0Ev@Base 3.2.0
 _ZN13TitleFunctionD1Ev@Base 3.2.0
 _ZN13TitleFunctionD2Ev@Base 3.2.0
 _ZN13TodayVariable14representsRealEb@Base 3.2.0
 _ZN13TodayVariable16representsNumberEb@Base 3.2.0
 _ZN13TodayVariable17representsNonZeroEb@Base 3.2.0
 _ZN13TodayVariable18representsPositiveEb@Base 3.2.0
 _ZN13TodayVariable20representsNonIntegerEb@Base 3.2.0
 _ZN13TodayVariable21representsNonNegativeEb@Base 3.2.0
 _ZN13TodayVariableC1Ev@Base 3.2.0
 _ZN13TodayVariableC2Ev@Base 3.2.0
 _ZN13TodayVariableD0Ev@Base 3.2.0
 _ZN13TodayVariableD1Ev@Base 3.2.0
 _ZN13TodayVariableD2Ev@Base 3.2.0
 _ZN13TotalFunction9calculateER13MathStructureRKS0_RK17EvaluationOptions@Base 3.2.0
 _ZN13TotalFunctionC1Ev@Base 3.2.0
 _ZN13TotalFunctionC2Ev@Base 3.2.0
 _ZN13TotalFunctionD0Ev@Base 3.2.0
 _ZN13TotalFunctionD1Ev@Base 3.2.0
 _ZN13TotalFunctionD2Ev@Base 3.2.0
 _ZN13TruncFunction9calculateER13MathStructureRKS0_RK17EvaluationOptions@Base 3.2.0
 _ZN13TruncFunctionC1Ev@Base 3.2.0
 _ZN13TruncFunctionC2Ev@Base 3.2.0
 _ZN13TruncFunctionD0Ev@Base 3.2.0
 _ZN13TruncFunctionD1Ev@Base 3.2.0
 _ZN13TruncFunctionD2Ev@Base 3.2.0
 _ZN14BitCmpFunction9calculateER13MathStructureRKS0_RK17EvaluationOptions@Base 3.2.0
 _ZN14BitCmpFunctionC1Ev@Base 3.2.0
 _ZN14BitCmpFunctionC2Ev@Base 3.2.0
 _ZN14BitCmpFunctionD0Ev@Base 3.2.0
 _ZN14BitCmpFunctionD1Ev@Base 3.2.0
 _ZN14BitCmpFunctionD2Ev@Base 3.2.0
 _ZN14BitXorFunction9calculateER13MathStructureRKS0_RK17EvaluationOptions@Base 3.2.0
 _ZN14BitXorFunctionC1Ev@Base 3.2.0
 _ZN14BitXorFunctionC2Ev@Base 3.2.0
 _ZN14BitXorFunctionD0Ev@Base 3.2.0
 _ZN14BitXorFunctionD1Ev@Base 3.2.0
 _ZN14BitXorFunctionD2Ev@Base 3.2.0
 _ZN14ColumnFunction9calculateER13MathStructureRKS0_RK17EvaluationOptions@Base 3.2.0
 _ZN14ColumnFunctionC1Ev@Base 3.2.0
 _ZN14ColumnFunctionC2Ev@Base 3.2.0
 _ZN14ColumnFunctionD0Ev@Base 3.2.0
 _ZN14ColumnFunctionD1Ev@Base 3.2.0
 _ZN14ColumnFunctionD2Ev@Base 3.2.0
 _ZN14DSolveFunction9calculateER13MathStructureRKS0_RK17EvaluationOptions@Base 3.2.0
 _ZN14DSolveFunctionC1Ev@Base 3.2.0
 _ZN14DSolveFunctionC2Ev@Base 3.2.0
 _ZN14DSolveFunctionD0Ev@Base 3.2.0
 _ZN14DSolveFunctionD1Ev@Base 3.2.0
 _ZN14DSolveFunctionD2Ev@Base 3.2.0
 _ZN14DegreeFunction9calculateER13MathStructureRKS0_RK17EvaluationOptions@Base 3.2.0
 _ZN14DegreeFunctionC1Ev@Base 3.2.0
 _ZN14DegreeFunctionC2Ev@Base 3.2.0
 _ZN14DegreeFunctionD0Ev@Base 3.2.0
 _ZN14DegreeFunctionD1Ev@Base 3.2.0
 _ZN14DegreeFunctionD2Ev@Base 3.2.0
 _ZN14DeriveFunction9calculateER13MathStructureRKS0_RK17EvaluationOptions@Base 3.2.0
 _ZN14DeriveFunctionC1Ev@Base 3.2.0
 _ZN14DeriveFunctionC2Ev@Base 3.2.0
 _ZN14DeriveFunctionD0Ev@Base 3.2.0
 _ZN14DeriveFunctionD1Ev@Base 3.2.0
 _ZN14DeriveFunctionD2Ev@Base 3.2.0
 _ZN14ExportFunction9calculateER13MathStructureRKS0_RK17EvaluationOptions@Base 3.2.0
 _ZN14ExportFunctionC1Ev@Base 3.2.0
 _ZN14ExportFunctionC2Ev@Base 3.2.0
 _ZN14ExportFunctionD0Ev@Base 3.2.0
 _ZN14ExportFunctionD1Ev@Base 3.2.0
 _ZN14ExportFunctionD2Ev@Base 3.2.0
 _ZN14ExpressionItem10clearNamesEv@Base 3.2.0
 _ZN14ExpressionItem10removeNameEm@Base 3.2.0
 _ZN14ExpressionItem10setChangedEb@Base 3.2.0
 _ZN14ExpressionItem11setCategoryENSt7__cxx1112basic_stringIcSt11char_traitsIcESaIcEEE@Base 3.2.0
 _ZN14ExpressionItem12setPrecisionEi@Base 3.2.0
 _ZN14ExpressionItem13setRegisteredEb@Base 3.2.0
 _ZN14ExpressionItem14setApproximateEb@Base 3.2.0
 _ZN14ExpressionItem14setDescriptionENSt7__cxx1112basic_stringIcSt11char_traitsIcESaIcEEE@Base 3.2.0
 _ZN14ExpressionItem15changeReferenceEPS_S0_@Base 3.2.0
 _ZN14ExpressionItem22clearNonReferenceNamesEv@Base 3.2.0
 _ZN14ExpressionItem3refEPS_@Base 3.2.0
 _ZN14ExpressionItem3refEv@Base 3.2.0
 _ZN14ExpressionItem3setEPKS_@Base 3.2.0
 _ZN14ExpressionItem5unrefEPS_@Base 3.2.0
 _ZN14ExpressionItem5unrefEv@Base 3.2.0
 _ZN14ExpressionItem7addNameENSt7__cxx1112basic_stringIcSt11char_traitsIcESaIcEEEmb@Base 3.2.0
 _ZN14ExpressionItem7addNameERK14ExpressionNamemb@Base 3.2.0
 _ZN14ExpressionItem7destroyEv@Base 3.2.0
 _ZN14ExpressionItem7setNameENSt7__cxx1112basic_stringIcSt11char_traitsIcESaIcEEEmb@Base 3.2.0
 _ZN14ExpressionItem7setNameERK14ExpressionNamemb@Base 3.2.0
 _ZN14ExpressionItem8setLocalEbi@Base 3.2.0
 _ZN14ExpressionItem8setTitleENSt7__cxx1112basic_stringIcSt11char_traitsIcESaIcEEE@Base 3.2.0
 _ZN14ExpressionItem9setActiveEb@Base 3.2.0
 _ZN14ExpressionItem9setHiddenEb@Base 3.2.0
 _ZN14ExpressionItemC1ENSt7__cxx1112basic_stringIcSt11char_traitsIcESaIcEEES5_S5_S5_bbb@Base 3.2.0
 _ZN14ExpressionItemC1Ev@Base 3.2.0
 _ZN14ExpressionItemC2ENSt7__cxx1112basic_stringIcSt11char_traitsIcESaIcEEES5_S5_S5_bbb@Base 3.2.0
 _ZN14ExpressionItemC2Ev@Base 3.2.0
 _ZN14ExpressionItemD0Ev@Base 3.2.0
 _ZN14ExpressionItemD1Ev@Base 3.2.0
 _ZN14ExpressionItemD2Ev@Base 3.2.0
 _ZN14ExpressionNameC1ENSt7__cxx1112basic_stringIcSt11char_traitsIcESaIcEEE@Base 3.2.0
 _ZN14ExpressionNameC1Ev@Base 3.2.0
 _ZN14ExpressionNameC2ENSt7__cxx1112basic_stringIcSt11char_traitsIcESaIcEEE@Base 3.2.0
 _ZN14ExpressionNameC2Ev@Base 3.2.0
 _ZN14ExpressionNameD1Ev@Base 3.2.0
 _ZN14ExpressionNameD2Ev@Base 3.2.0
 _ZN14ExpressionNameaSERKS_@Base 3.2.0
 _ZN14IGammaFunction9calculateER13MathStructureRKS0_RK17EvaluationOptions@Base 3.2.0
 _ZN14IGammaFunctionC1Ev@Base 3.2.0
 _ZN14IGammaFunctionC2Ev@Base 3.2.0
 _ZN14IGammaFunctionD0Ev@Base 3.2.0
 _ZN14IGammaFunctionD1Ev@Base 3.2.0
 _ZN14IGammaFunctionD2Ev@Base 3.2.0
 _ZN14IsRealFunction9calculateER13MathStructureRKS0_RK17EvaluationOptions@Base 3.2.0
 _ZN14IsRealFunctionC1Ev@Base 3.2.0
 _ZN14IsRealFunctionC2Ev@Base 3.2.0
 _ZN14IsRealFunctionD0Ev@Base 3.2.0
 _ZN14IsRealFunctionD1Ev@Base 3.2.0
 _ZN14IsRealFunctionD2Ev@Base 3.2.0
 _ZN14LCoeffFunction9calculateER13MathStructureRKS0_RK17EvaluationOptions@Base 3.2.0
 _ZN14LCoeffFunctionC1Ev@Base 3.2.0
 _ZN14LCoeffFunctionC2Ev@Base 3.2.0
 _ZN14LCoeffFunctionD0Ev@Base 3.2.0
 _ZN14LCoeffFunctionD1Ev@Base 3.2.0
 _ZN14LCoeffFunctionD2Ev@Base 3.2.0
 _ZN14LengthFunction9calculateER13MathStructureRKS0_RK17EvaluationOptions@Base 3.2.0
 _ZN14LengthFunctionC1Ev@Base 3.2.0
 _ZN14LengthFunctionC2Ev@Base 3.2.0
 _ZN14LengthFunctionD0Ev@Base 3.2.0
 _ZN14LengthFunctionD1Ev@Base 3.2.0
 _ZN14LengthFunctionD2Ev@Base 3.2.0
 _ZN14LimitsFunction9calculateER13MathStructureRKS0_RK17EvaluationOptions@Base 3.2.0
 _ZN14LimitsFunctionC1Ev@Base 3.2.0
 _ZN14LimitsFunctionC2Ev@Base 3.2.0
 _ZN14LimitsFunctionD0Ev@Base 3.2.0
 _ZN14LimitsFunctionD1Ev@Base 3.2.0
 _ZN14LimitsFunctionD2Ev@Base 3.2.0
 _ZN14MatrixArgument17setSquareDemandedEb@Base 3.2.0
 _ZN14MatrixArgumentC1ENSt7__cxx1112basic_stringIcSt11char_traitsIcESaIcEEEbb@Base 3.2.0
 _ZN14MatrixArgumentC1EPKS_@Base 3.2.0
 _ZN14MatrixArgumentC2ENSt7__cxx1112basic_stringIcSt11char_traitsIcESaIcEEEbb@Base 3.2.0
 _ZN14MatrixArgumentC2EPKS_@Base 3.2.0
 _ZN14MatrixArgumentD0Ev@Base 3.2.0
 _ZN14MatrixArgumentD1Ev@Base 3.2.0
 _ZN14MatrixArgumentD2Ev@Base 3.2.0
 _ZN14MatrixFunction9calculateER13MathStructureRKS0_RK17EvaluationOptions@Base 3.2.0
 _ZN14MatrixFunctionC1Ev@Base 3.2.0
 _ZN14MatrixFunctionC2Ev@Base 3.2.0
 _ZN14MatrixFunctionD0Ev@Base 3.2.0
 _ZN14MatrixFunctionD1Ev@Base 3.2.0
 _ZN14MatrixFunctionD2Ev@Base 3.2.0
 _ZN14NumberArgument17setComplexAllowedEb@Base 3.2.0
 _ZN14NumberArgument17setRationalNumberEb@Base 3.2.0
 _ZN14NumberArgument19setIncludeEqualsMaxEb@Base 3.2.0
 _ZN14NumberArgument19setIncludeEqualsMinEb@Base 3.2.0
 _ZN14NumberArgument3setEPK8Argument@Base 3.2.0
 _ZN14NumberArgument6setMaxEPK6Number@Base 3.2.0
 _ZN14NumberArgument6setMinEPK6Number@Base 3.2.0
 _ZN14NumberArgumentC1ENSt7__cxx1112basic_stringIcSt11char_traitsIcESaIcEEE27ArgumentMinMaxPreDefinitionbb@Base 3.2.0
 _ZN14NumberArgumentC1EPKS_@Base 3.2.0
 _ZN14NumberArgumentC2ENSt7__cxx1112basic_stringIcSt11char_traitsIcESaIcEEE27ArgumentMinMaxPreDefinitionbb@Base 3.2.0
 _ZN14NumberArgumentC2EPKS_@Base 3.2.0
 _ZN14NumberArgumentD0Ev@Base 3.2.0
 _ZN14NumberArgumentD1Ev@Base 3.2.0
 _ZN14NumberArgumentD2Ev@Base 3.2.0
 _ZN14PlotParametersC1Ev@Base 3.2.0
 _ZN14PlotParametersC2Ev@Base 3.2.0
 _ZN14SelectFunction9calculateER13MathStructureRKS0_RK17EvaluationOptions@Base 3.2.0
 _ZN14SelectFunctionC1Ev@Base 3.2.0
 _ZN14SelectFunctionC2Ev@Base 3.2.0
 _ZN14SelectFunctionD0Ev@Base 3.2.0
 _ZN14SelectFunctionD1Ev@Base 3.2.0
 _ZN14SelectFunctionD2Ev@Base 3.2.0
 _ZN14SignumFunction9calculateER13MathStructureRKS0_RK17EvaluationOptions@Base 3.2.0
 _ZN14SignumFunctionC1Ev@Base 3.2.0
 _ZN14SignumFunctionC2Ev@Base 3.2.0
 _ZN14SignumFunctionD0Ev@Base 3.2.0
 _ZN14SignumFunctionD1Ev@Base 3.2.0
 _ZN14SignumFunctionD2Ev@Base 3.2.0
 _ZN14SquareFunction9calculateER13MathStructureRKS0_RK17EvaluationOptions@Base 3.2.0
 _ZN14SquareFunctionC1Ev@Base 3.2.0
 _ZN14SquareFunctionC2Ev@Base 3.2.0
 _ZN14SquareFunctionD0Ev@Base 3.2.0
 _ZN14SquareFunctionD1Ev@Base 3.2.0
 _ZN14SquareFunctionD2Ev@Base 3.2.0
 _ZN14TCoeffFunction9calculateER13MathStructureRKS0_RK17EvaluationOptions@Base 3.2.0
 _ZN14TCoeffFunctionC1Ev@Base 3.2.0
 _ZN14TCoeffFunctionC2Ev@Base 3.2.0
 _ZN14TCoeffFunctionD0Ev@Base 3.2.0
 _ZN14TCoeffFunctionD1Ev@Base 3.2.0
 _ZN14TCoeffFunctionD2Ev@Base 3.2.0
 _ZN14UptimeVariableD0Ev@Base 3.2.0
 _ZN14UptimeVariableD1Ev@Base 3.2.0
 _ZN14UptimeVariableD2Ev@Base 3.2.0
 _ZN14VectorArgument11addArgumentEP8Argument@Base 3.2.0
 _ZN14VectorArgument11delArgumentEm@Base 3.2.0
 _ZN14VectorArgument22setReoccuringArgumentsEb@Base 3.2.0
 _ZN14VectorArgumentC1ENSt7__cxx1112basic_stringIcSt11char_traitsIcESaIcEEEbbb@Base 3.2.0
 _ZN14VectorArgumentC1EPKS_@Base 3.2.0
 _ZN14VectorArgumentC2ENSt7__cxx1112basic_stringIcSt11char_traitsIcESaIcEEEbbb@Base 3.2.0
 _ZN14VectorArgumentC2EPKS_@Base 3.2.0
 _ZN14VectorArgumentD0Ev@Base 3.2.0
 _ZN14VectorArgumentD1Ev@Base 3.2.0
 _ZN14VectorArgumentD2Ev@Base 3.2.0
 _ZN14VectorFunction9calculateER13MathStructureRKS0_RK17EvaluationOptions@Base 3.2.0
 _ZN14VectorFunctionC1Ev@Base 3.2.0
 _ZN14VectorFunctionC2Ev@Base 3.2.0
 _ZN14VectorFunctionD0Ev@Base 3.2.0
 _ZN14VectorFunctionD1Ev@Base 3.2.0
 _ZN14VectorFunctionD2Ev@Base 3.2.0
 _ZN14node_tree_itemD1Ev@Base 3.2.0
 _ZN14node_tree_itemD2Ev@Base 3.2.0
 _ZN15AddDaysFunction9calculateER13MathStructureRKS0_RK17EvaluationOptions@Base 3.2.0
 _ZN15AddDaysFunctionC1Ev@Base 3.2.0
 _ZN15AddDaysFunctionC2Ev@Base 3.2.0
 _ZN15AddDaysFunctionD0Ev@Base 3.2.0
 _ZN15AddDaysFunctionD1Ev@Base 3.2.0
 _ZN15AddDaysFunctionD2Ev@Base 3.2.0
 _ZN15AdjointFunction9calculateER13MathStructureRKS0_RK17EvaluationOptions@Base 3.2.0
 _ZN15AdjointFunctionC1Ev@Base 3.2.0
 _ZN15AdjointFunctionC2Ev@Base 3.2.0
 _ZN15AdjointFunctionD0Ev@Base 3.2.0
 _ZN15AdjointFunctionD1Ev@Base 3.2.0
 _ZN15AdjointFunctionD2Ev@Base 3.2.0
 _ZN15BesseljFunction9calculateER13MathStructureRKS0_RK17EvaluationOptions@Base 3.2.0
 _ZN15BesseljFunctionC1Ev@Base 3.2.0
 _ZN15BesseljFunctionC2Ev@Base 3.2.0
 _ZN15BesseljFunctionD0Ev@Base 3.2.0
 _ZN15BesseljFunctionD1Ev@Base 3.2.0
 _ZN15BesseljFunctionD2Ev@Base 3.2.0
 _ZN15BesselyFunction9calculateER13MathStructureRKS0_RK17EvaluationOptions@Base 3.2.0
 _ZN15BesselyFunctionC1Ev@Base 3.2.0
 _ZN15BesselyFunctionC2Ev@Base 3.2.0
 _ZN15BesselyFunctionD0Ev@Base 3.2.0
 _ZN15BesselyFunctionD1Ev@Base 3.2.0
 _ZN15BesselyFunctionD2Ev@Base 3.2.0
 _ZN15BooleanArgumentC1ENSt7__cxx1112basic_stringIcSt11char_traitsIcESaIcEEEbb@Base 3.2.0
 _ZN15BooleanArgumentC1EPKS_@Base 3.2.0
 _ZN15BooleanArgumentC2ENSt7__cxx1112basic_stringIcSt11char_traitsIcESaIcEEEbb@Base 3.2.0
 _ZN15BooleanArgumentC2EPKS_@Base 3.2.0
 _ZN15BooleanArgumentD0Ev@Base 3.2.0
 _ZN15BooleanArgumentD1Ev@Base 3.2.0
 _ZN15BooleanArgumentD2Ev@Base 3.2.0
 _ZN15CalculateThread3runEv@Base 3.2.0
 _ZN15CalculateThreadD0Ev@Base 3.2.0
 _ZN15CalculateThreadD1Ev@Base 3.2.0
 _ZN15CalculateThreadD2Ev@Base 3.2.0
 _ZN15CatalanVariableC1Ev@Base 3.2.0
 _ZN15CatalanVariableC2Ev@Base 3.2.0
 _ZN15CatalanVariableD0Ev@Base 3.2.0
 _ZN15CatalanVariableD1Ev@Base 3.2.0
 _ZN15CatalanVariableD2Ev@Base 3.2.0
 _ZN15ColumnsFunction9calculateER13MathStructureRKS0_RK17EvaluationOptions@Base 3.2.0
 _ZN15ColumnsFunctionC1Ev@Base 3.2.0
 _ZN15ColumnsFunctionC2Ev@Base 3.2.0
 _ZN15ColumnsFunctionD0Ev@Base 3.2.0
 _ZN15ColumnsFunctionD1Ev@Base 3.2.0
 _ZN15ColumnsFunctionD2Ev@Base 3.2.0
 _ZN15DigammaFunction9calculateER13MathStructureRKS0_RK17EvaluationOptions@Base 3.2.0
 _ZN15DigammaFunctionC1Ev@Base 3.2.0
 _ZN15DigammaFunctionC2Ev@Base 3.2.0
 _ZN15DigammaFunctionD0Ev@Base 3.2.0
 _ZN15DigammaFunctionD1Ev@Base 3.2.0
 _ZN15DigammaFunctionD2Ev@Base 3.2.0
 _ZN15DynamicVariable13representsOddEb@Base 3.2.0
 _ZN15DynamicVariable14representsEvenEb@Base 3.2.0
 _ZN15DynamicVariable14representsRealEb@Base 3.2.0
 _ZN15DynamicVariable16representsNumberEb@Base 3.2.0
 _ZN15DynamicVariable16representsScalarEv@Base 3.2.0
 _ZN15DynamicVariable17representsBooleanEv@Base 3.2.0
 _ZN15DynamicVariable17representsComplexEb@Base 3.2.0
 _ZN15DynamicVariable17representsIntegerEb@Base 3.2.0
 _ZN15DynamicVariable17representsNonZeroEb@Base 3.2.0
 _ZN15DynamicVariable18representsNegativeEb@Base 3.2.0
 _ZN15DynamicVariable18representsPositiveEb@Base 3.2.0
 _ZN15DynamicVariable18representsRationalEb@Base 3.2.0
 _ZN15DynamicVariable19representsNonMatrixEv@Base 3.2.0
 _ZN15DynamicVariable19representsUndefinedEbbb@Base 3.2.0
 _ZN15DynamicVariable20representsNonIntegerEb@Base 3.2.0
 _ZN15DynamicVariable21representsNonNegativeEb@Base 3.2.0
 _ZN15DynamicVariable21representsNonPositiveEb@Base 3.2.0
 _ZN15DynamicVariable3getEv@Base 3.2.0
 _ZN15DynamicVariable3setENSt7__cxx1112basic_stringIcSt11char_traitsIcESaIcEEE@Base 3.2.0
 _ZN15DynamicVariable3setEPK14ExpressionItem@Base 3.2.0
 _ZN15DynamicVariable3setERK13MathStructure@Base 3.2.0
 _ZN15DynamicVariableC1ENSt7__cxx1112basic_stringIcSt11char_traitsIcESaIcEEES5_S5_bbb@Base 3.2.0
 _ZN15DynamicVariableC1EPKS_@Base 3.2.0
 _ZN15DynamicVariableC1Ev@Base 3.2.0
 _ZN15DynamicVariableC2ENSt7__cxx1112basic_stringIcSt11char_traitsIcESaIcEEES5_S5_bbb@Base 3.2.0
 _ZN15DynamicVariableC2EPKS_@Base 3.2.0
 _ZN15DynamicVariableC2Ev@Base 3.2.0
 _ZN15DynamicVariableD0Ev@Base 3.2.0
 _ZN15DynamicVariableD1Ev@Base 3.2.0
 _ZN15DynamicVariableD2Ev@Base 3.2.0
 _ZN15ElementFunction9calculateER13MathStructureRKS0_RK17EvaluationOptions@Base 3.2.0
 _ZN15ElementFunctionC1Ev@Base 3.2.0
 _ZN15ElementFunctionC2Ev@Base 3.2.0
 _ZN15ElementFunctionD0Ev@Base 3.2.0
 _ZN15ElementFunctionD1Ev@Base 3.2.0
 _ZN15ElementFunctionD2Ev@Base 3.2.0
 _ZN15IntegerArgument14setIntegerTypeE11IntegerType@Base 3.2.0
 _ZN15IntegerArgument3setEPK8Argument@Base 3.2.0
 _ZN15IntegerArgument6setMaxEPK6Number@Base 3.2.0
 _ZN15IntegerArgument6setMinEPK6Number@Base 3.2.0
 _ZN15IntegerArgumentC1ENSt7__cxx1112basic_stringIcSt11char_traitsIcESaIcEEE27ArgumentMinMaxPreDefinitionbb11IntegerType@Base 3.2.0
 _ZN15IntegerArgumentC1EPKS_@Base 3.2.0
 _ZN15IntegerArgumentC2ENSt7__cxx1112basic_stringIcSt11char_traitsIcESaIcEEE27ArgumentMinMaxPreDefinitionbb11IntegerType@Base 3.2.0
 _ZN15IntegerArgumentC2EPKS_@Base 3.2.0
 _ZN15IntegerArgumentD0Ev@Base 3.2.0
 _ZN15IntegerArgumentD1Ev@Base 3.2.0
 _ZN15IntegerArgumentD2Ev@Base 3.2.0
 _ZN15InverseFunction9calculateER13MathStructureRKS0_RK17EvaluationOptions@Base 3.2.0
 _ZN15InverseFunctionC1Ev@Base 3.2.0
 _ZN15InverseFunctionC2Ev@Base 3.2.0
 _ZN15InverseFunctionD0Ev@Base 3.2.0
 _ZN15InverseFunctionD1Ev@Base 3.2.0
 _ZN15InverseFunctionD2Ev@Base 3.2.0
 _ZN15LDegreeFunction9calculateER13MathStructureRKS0_RK17EvaluationOptions@Base 3.2.0
 _ZN15LDegreeFunctionC1Ev@Base 3.2.0
 _ZN15LDegreeFunctionC2Ev@Base 3.2.0
 _ZN15LDegreeFunctionD0Ev@Base 3.2.0
 _ZN15LDegreeFunctionD1Ev@Base 3.2.0
 _ZN15LDegreeFunctionD2Ev@Base 3.2.0
 _ZN15MessageFunction9calculateER13MathStructureRKS0_RK17EvaluationOptions@Base 3.2.0
 _ZN15MessageFunctionC1Ev@Base 3.2.0
 _ZN15MessageFunctionC2Ev@Base 3.2.0
 _ZN15MessageFunctionD0Ev@Base 3.2.0
 _ZN15MessageFunctionD1Ev@Base 3.2.0
 _ZN15MessageFunctionD2Ev@Base 3.2.0
 _ZN15ProcessFunction9calculateER13MathStructureRKS0_RK17EvaluationOptions@Base 3.2.0
 _ZN15ProcessFunctionC1Ev@Base 3.2.0
 _ZN15ProcessFunctionC2Ev@Base 3.2.0
 _ZN15ProcessFunctionD0Ev@Base 3.2.0
 _ZN15ProcessFunctionD1Ev@Base 3.2.0
 _ZN15ProcessFunctionD2Ev@Base 3.2.0
 _ZN15ProductFunction9calculateER13MathStructureRKS0_RK17EvaluationOptions@Base 3.2.0
 _ZN15ProductFunctionC1Ev@Base 3.2.0
 _ZN15ProductFunctionC2Ev@Base 3.2.0
 _ZN15ProductFunctionD0Ev@Base 3.2.0
 _ZN15ProductFunctionD1Ev@Base 3.2.0
 _ZN15ProductFunctionD2Ev@Base 3.2.0
 _ZN15ReplaceFunction9calculateER13MathStructureRKS0_RK17EvaluationOptions@Base 3.2.0
 _ZN15ReplaceFunctionC1Ev@Base 3.2.0
 _ZN15ReplaceFunctionC2Ev@Base 3.2.0
 _ZN15ReplaceFunctionD0Ev@Base 3.2.0
 _ZN15ReplaceFunctionD1Ev@Base 3.2.0
 _ZN15ReplaceFunctionD2Ev@Base 3.2.0
 _ZN15UnknownVariable11assumptionsEv@Base 3.2.0
 _ZN15UnknownVariable11setIntervalERK13MathStructure@Base 3.2.0
 _ZN15UnknownVariable14representsRealEb@Base 3.2.0
 _ZN15UnknownVariable14setAssumptionsEP11Assumptions@Base 3.2.0
 _ZN15UnknownVariable14setAssumptionsERK13MathStructure@Base 3.2.0
 _ZN15UnknownVariable16representsNumberEb@Base 3.2.0
 _ZN15UnknownVariable16representsScalarEv@Base 3.2.0
 _ZN15UnknownVariable17representsComplexEb@Base 3.2.0
 _ZN15UnknownVariable17representsIntegerEb@Base 3.2.0
 _ZN15UnknownVariable17representsNonZeroEb@Base 3.2.0
 _ZN15UnknownVariable18representsNegativeEb@Base 3.2.0
 _ZN15UnknownVariable18representsPositiveEb@Base 3.2.0
 _ZN15UnknownVariable18representsRationalEb@Base 3.2.0
 _ZN15UnknownVariable19representsNonMatrixEv@Base 3.2.0
 _ZN15UnknownVariable20representsNonComplexEb@Base 3.2.0
 _ZN15UnknownVariable21representsNonNegativeEb@Base 3.2.0
 _ZN15UnknownVariable21representsNonPositiveEb@Base 3.2.0
 _ZN15UnknownVariable3setEPK14ExpressionItem@Base 3.2.0
 _ZN15UnknownVariableC1ENSt7__cxx1112basic_stringIcSt11char_traitsIcESaIcEEES5_S5_bbb@Base 3.2.0
 _ZN15UnknownVariableC1EPKS_@Base 3.2.0
 _ZN15UnknownVariableC1Ev@Base 3.2.0
 _ZN15UnknownVariableC2ENSt7__cxx1112basic_stringIcSt11char_traitsIcESaIcEEES5_S5_bbb@Base 3.2.0
 _ZN15UnknownVariableC2EPKS_@Base 3.2.0
 _ZN15UnknownVariableC2Ev@Base 3.2.0
 _ZN15UnknownVariableD0Ev@Base 3.2.0
 _ZN15UnknownVariableD1Ev@Base 3.2.0
 _ZN15UnknownVariableD2Ev@Base 3.2.0
 _ZN15WarningFunction9calculateER13MathStructureRKS0_RK17EvaluationOptions@Base 3.2.0
 _ZN15WarningFunctionC1Ev@Base 3.2.0
 _ZN15WarningFunctionC2Ev@Base 3.2.0
 _ZN15WarningFunctionD0Ev@Base 3.2.0
 _ZN15WarningFunctionD1Ev@Base 3.2.0
 _ZN15WarningFunctionD2Ev@Base 3.2.0
 _ZN15WeekdayFunction9calculateER13MathStructureRKS0_RK17EvaluationOptions@Base 3.2.0
 _ZN15WeekdayFunctionC1Ev@Base 3.2.0
 _ZN15WeekdayFunctionC2Ev@Base 3.2.0
 _ZN15WeekdayFunctionD0Ev@Base 3.2.0
 _ZN15WeekdayFunctionD1Ev@Base 3.2.0
 _ZN15WeekdayFunctionD2Ev@Base 3.2.0
 _ZN15YeardayFunction9calculateER13MathStructureRKS0_RK17EvaluationOptions@Base 3.2.0
 _ZN15YeardayFunctionC1Ev@Base 3.2.0
 _ZN15YeardayFunctionC2Ev@Base 3.2.0
 _ZN15YeardayFunctionD0Ev@Base 3.2.0
 _ZN15YeardayFunctionD1Ev@Base 3.2.0
 _ZN15YeardayFunctionD2Ev@Base 3.2.0
 _ZN16AddYearsFunction9calculateER13MathStructureRKS0_RK17EvaluationOptions@Base 3.2.0
 _ZN16AddYearsFunctionC1Ev@Base 3.2.0
 _ZN16AddYearsFunctionC2Ev@Base 3.2.0
 _ZN16AddYearsFunctionD0Ev@Base 3.2.0
 _ZN16AddYearsFunctionD1Ev@Base 3.2.0
 _ZN16AddYearsFunctionD2Ev@Base 3.2.0
 _ZN16BinomialFunction9calculateER13MathStructureRKS0_RK17EvaluationOptions@Base 3.2.0
 _ZN16BinomialFunctionC1Ev@Base 3.2.0
 _ZN16BinomialFunctionC2Ev@Base 3.2.0
 _ZN16BinomialFunctionD0Ev@Base 3.2.0
 _ZN16BinomialFunctionD1Ev@Base 3.2.0
 _ZN16BinomialFunctionD2Ev@Base 3.2.0
 _ZN16CofactorFunction9calculateER13MathStructureRKS0_RK17EvaluationOptions@Base 3.2.0
 _ZN16CofactorFunctionC1Ev@Base 3.2.0
 _ZN16CofactorFunctionC2Ev@Base 3.2.0
 _ZN16CofactorFunctionD0Ev@Base 3.2.0
 _ZN16CofactorFunctionD1Ev@Base 3.2.0
 _ZN16CofactorFunctionD2Ev@Base 3.2.0
 _ZN16DateTimeFunction9calculateER13MathStructureRKS0_RK17EvaluationOptions@Base 3.2.0
 _ZN16DateTimeFunctionC1Ev@Base 3.2.0
 _ZN16DateTimeFunctionC2Ev@Base 3.2.0
 _ZN16DateTimeFunctionD0Ev@Base 3.2.0
 _ZN16DateTimeFunctionD1Ev@Base 3.2.0
 _ZN16DateTimeFunctionD2Ev@Base 3.2.0
 _ZN16ElementsFunction9calculateER13MathStructureRKS0_RK17EvaluationOptions@Base 3.2.0
 _ZN16ElementsFunctionC1Ev@Base 3.2.0
 _ZN16ElementsFunctionC2Ev@Base 3.2.0
 _ZN16ElementsFunctionD0Ev@Base 3.2.0
 _ZN16ElementsFunctionD1Ev@Base 3.2.0
 _ZN16ElementsFunctionD2Ev@Base 3.2.0
 _ZN16FunctionArgumentC1ENSt7__cxx1112basic_stringIcSt11char_traitsIcESaIcEEEbb@Base 3.2.0
 _ZN16FunctionArgumentC1EPKS_@Base 3.2.0
 _ZN16FunctionArgumentC2ENSt7__cxx1112basic_stringIcSt11char_traitsIcESaIcEEEbb@Base 3.2.0
 _ZN16FunctionArgumentC2EPKS_@Base 3.2.0
 _ZN16FunctionArgumentD0Ev@Base 3.2.0
 _ZN16FunctionArgumentD1Ev@Base 3.2.0
 _ZN16FunctionArgumentD2Ev@Base 3.2.0
 _ZN16FunctionFunction9calculateER13MathStructureRKS0_RK17EvaluationOptions@Base 3.2.0
 _ZN16FunctionFunctionC1Ev@Base 3.2.0
 _ZN16FunctionFunctionC2Ev@Base 3.2.0
 _ZN16FunctionFunctionD0Ev@Base 3.2.0
 _ZN16FunctionFunctionD1Ev@Base 3.2.0
 _ZN16FunctionFunctionD2Ev@Base 3.2.0
 _ZN16HadamardFunction9calculateER13MathStructureRKS0_RK17EvaluationOptions@Base 3.2.0
 _ZN16HadamardFunctionC1Ev@Base 3.2.0
 _ZN16HadamardFunctionC2Ev@Base 3.2.0
 _ZN16HadamardFunctionD0Ev@Base 3.2.0
 _ZN16HadamardFunctionD1Ev@Base 3.2.0
 _ZN16HadamardFunctionD2Ev@Base 3.2.0
 _ZN16IdentityFunction9calculateER13MathStructureRKS0_RK17EvaluationOptions@Base 3.2.0
 _ZN16IdentityFunctionC1Ev@Base 3.2.0
 _ZN16IdentityFunctionC2Ev@Base 3.2.0
 _ZN16IdentityFunctionD0Ev@Base 3.2.0
 _ZN16IdentityFunctionD1Ev@Base 3.2.0
 _ZN16IdentityFunctionD2Ev@Base 3.2.0
 _ZN16IntervalFunction9calculateER13MathStructureRKS0_RK17EvaluationOptions@Base 3.2.0
 _ZN16IntervalFunctionC1Ev@Base 3.2.0
 _ZN16IntervalFunctionC2Ev@Base 3.2.0
 _ZN16IntervalFunctionD0Ev@Base 3.2.0
 _ZN16IntervalFunctionD1Ev@Base 3.2.0
 _ZN16IntervalFunctionD2Ev@Base 3.2.0
 _ZN16IsNumberFunction9calculateER13MathStructureRKS0_RK17EvaluationOptions@Base 3.2.0
 _ZN16IsNumberFunctionC1Ev@Base 3.2.0
 _ZN16IsNumberFunctionC2Ev@Base 3.2.0
 _ZN16IsNumberFunctionD0Ev@Base 3.2.0
 _ZN16IsNumberFunctionD1Ev@Base 3.2.0
 _ZN16IsNumberFunctionD2Ev@Base 3.2.0
 _ZN16LambertWFunction9calculateER13MathStructureRKS0_RK17EvaluationOptions@Base 3.2.0
 _ZN16LambertWFunctionC1Ev@Base 3.2.0
 _ZN16LambertWFunctionC2Ev@Base 3.2.0
 _ZN16LambertWFunctionD0Ev@Base 3.2.0
 _ZN16LambertWFunctionD1Ev@Base 3.2.0
 _ZN16LambertWFunctionD2Ev@Base 3.2.0
 _ZN16RegisterFunction9calculateER13MathStructureRKS0_RK17EvaluationOptions@Base 3.2.0
 _ZN16RegisterFunctionC1Ev@Base 3.2.0
 _ZN16RegisterFunctionC2Ev@Base 3.2.0
 _ZN16RegisterFunctionD0Ev@Base 3.2.0
 _ZN16RegisterFunctionD1Ev@Base 3.2.0
 _ZN16RegisterFunctionD2Ev@Base 3.2.0
 _ZN16SymbolicArgumentC1ENSt7__cxx1112basic_stringIcSt11char_traitsIcESaIcEEEbb@Base 3.2.0
 _ZN16SymbolicArgumentC1EPKS_@Base 3.2.0
 _ZN16SymbolicArgumentC2ENSt7__cxx1112basic_stringIcSt11char_traitsIcESaIcEEEbb@Base 3.2.0
 _ZN16SymbolicArgumentC2EPKS_@Base 3.2.0
 _ZN16SymbolicArgumentD0Ev@Base 3.2.0
 _ZN16SymbolicArgumentD1Ev@Base 3.2.0
 _ZN16SymbolicArgumentD2Ev@Base 3.2.0
 _ZN16TomorrowVariable14representsRealEb@Base 3.2.0
 _ZN16TomorrowVariable16representsNumberEb@Base 3.2.0
 _ZN16TomorrowVariable17representsNonZeroEb@Base 3.2.0
 _ZN16TomorrowVariable18representsPositiveEb@Base 3.2.0
 _ZN16TomorrowVariable20representsNonIntegerEb@Base 3.2.0
 _ZN16TomorrowVariable21representsNonNegativeEb@Base 3.2.0
 _ZN16TomorrowVariableC1Ev@Base 3.2.0
 _ZN16TomorrowVariableC2Ev@Base 3.2.0
 _ZN16TomorrowVariableD0Ev@Base 3.2.0
 _ZN16TomorrowVariableD1Ev@Base 3.2.0
 _ZN16TomorrowVariableD2Ev@Base 3.2.0
 _ZN16VariableArgumentC1ENSt7__cxx1112basic_stringIcSt11char_traitsIcESaIcEEEbb@Base 3.2.0
 _ZN16VariableArgumentC1EPKS_@Base 3.2.0
 _ZN16VariableArgumentC2ENSt7__cxx1112basic_stringIcSt11char_traitsIcESaIcEEEbb@Base 3.2.0
 _ZN16VariableArgumentC2EPKS_@Base 3.2.0
 _ZN16VariableArgumentD0Ev@Base 3.2.0
 _ZN16VariableArgumentD1Ev@Base 3.2.0
 _ZN16VariableArgumentD2Ev@Base 3.2.0
 _ZN16YearFracFunction9calculateER13MathStructureRKS0_RK17EvaluationOptions@Base 3.2.0
 _ZN16YearFracFunctionC1Ev@Base 3.2.0
 _ZN16YearFracFunctionC2Ev@Base 3.2.0
 _ZN16YearFracFunctionD0Ev@Base 3.2.0
 _ZN16YearFracFunctionD1Ev@Base 3.2.0
 _ZN16YearFracFunctionD2Ev@Base 3.2.0
 _ZN17AddMonthsFunction9calculateER13MathStructureRKS0_RK17EvaluationOptions@Base 3.2.0
 _ZN17AddMonthsFunctionC1Ev@Base 3.2.0
 _ZN17AddMonthsFunctionC2Ev@Base 3.2.0
 _ZN17AddMonthsFunctionD0Ev@Base 3.2.0
 _ZN17AddMonthsFunctionD1Ev@Base 3.2.0
 _ZN17AddMonthsFunctionD2Ev@Base 3.2.0
 _ZN17CalculatorMessageC1ENSt7__cxx1112basic_stringIcSt11char_traitsIcESaIcEEE11MessageTypeii@Base 3.2.0
 _ZN17CalculatorMessageC1ERKS_@Base 3.2.0
 _ZN17CalculatorMessageC2ENSt7__cxx1112basic_stringIcSt11char_traitsIcESaIcEEE11MessageTypeii@Base 3.2.0
 _ZN17CalculatorMessageC2ERKS_@Base 3.2.0
 _ZN17ComponentFunction9calculateER13MathStructureRKS0_RK17EvaluationOptions@Base 3.2.0
 _ZN17ComponentFunctionC1Ev@Base 3.2.0
 _ZN17ComponentFunctionC2Ev@Base 3.2.0
 _ZN17ComponentFunctionD0Ev@Base 3.2.0
 _ZN17ComponentFunctionD1Ev@Base 3.2.0
 _ZN17ComponentFunctionD2Ev@Base 3.2.0
 _ZN17CustomSumFunction9calculateER13MathStructureRKS0_RK17EvaluationOptions@Base 3.2.0
 _ZN17CustomSumFunctionC1Ev@Base 3.2.0
 _ZN17CustomSumFunctionC2Ev@Base 3.2.0
 _ZN17CustomSumFunctionD0Ev@Base 3.2.0
 _ZN17CustomSumFunctionD1Ev@Base 3.2.0
 _ZN17CustomSumFunctionD2Ev@Base 3.2.0
 _ZN17DimensionFunction9calculateER13MathStructureRKS0_RK17EvaluationOptions@Base 3.2.0
 _ZN17DimensionFunctionC1Ev@Base 3.2.0
 _ZN17DimensionFunctionC2Ev@Base 3.2.0
 _ZN17DimensionFunctionD0Ev@Base 3.2.0
 _ZN17DimensionFunctionD1Ev@Base 3.2.0
 _ZN17DimensionFunctionD2Ev@Base 3.2.0
 _ZN17EntrywiseFunction9calculateER13MathStructureRKS0_RK17EvaluationOptions@Base 3.2.0
 _ZN17EntrywiseFunctionC1Ev@Base 3.2.0
 _ZN17EntrywiseFunctionC2Ev@Base 3.2.0
 _ZN17EntrywiseFunctionD0Ev@Base 3.2.0
 _ZN17EntrywiseFunctionD1Ev@Base 3.2.0
 _ZN17EntrywiseFunctionD2Ev@Base 3.2.0
 _ZN17EvaluationOptionsC1Ev@Base 3.2.0
 _ZN17EvaluationOptionsC2Ev@Base 3.2.0
 _ZN17FactorialFunction9calculateER13MathStructureRKS0_RK17EvaluationOptions@Base 3.2.0
 _ZN17FactorialFunctionC1Ev@Base 3.2.0
 _ZN17FactorialFunctionC2Ev@Base 3.2.0
 _ZN17FactorialFunctionD0Ev@Base 3.2.0
 _ZN17FactorialFunctionD1Ev@Base 3.2.0
 _ZN17FactorialFunctionD2Ev@Base 3.2.0
 _ZN17HeavisideFunction9calculateER13MathStructureRKS0_RK17EvaluationOptions@Base 3.2.0
 _ZN17HeavisideFunctionC1Ev@Base 3.2.0
 _ZN17HeavisideFunctionC2Ev@Base 3.2.0
 _ZN17HeavisideFunctionD0Ev@Base 3.2.0
 _ZN17HeavisideFunctionD1Ev@Base 3.2.0
 _ZN17HeavisideFunctionD2Ev@Base 3.2.0
 _ZN17IntegrateFunction9calculateER13MathStructureRKS0_RK17EvaluationOptions@Base 3.2.0
 _ZN17IntegrateFunctionC1Ev@Base 3.2.0
 _ZN17IntegrateFunctionC2Ev@Base 3.2.0
 _ZN17IntegrateFunctionD0Ev@Base 3.2.0
 _ZN17IntegrateFunctionD1Ev@Base 3.2.0
 _ZN17IntegrateFunctionD2Ev@Base 3.2.0
 _ZN17IsIntegerFunction9calculateER13MathStructureRKS0_RK17EvaluationOptions@Base 3.2.0
 _ZN17IsIntegerFunctionC1Ev@Base 3.2.0
 _ZN17IsIntegerFunctionC2Ev@Base 3.2.0
 _ZN17IsIntegerFunctionD0Ev@Base 3.2.0
 _ZN17IsIntegerFunctionD1Ev@Base 3.2.0
 _ZN17IsIntegerFunctionD2Ev@Base 3.2.0
 _ZN17MagnitudeFunction9calculateER13MathStructureRKS0_RK17EvaluationOptions@Base 3.2.0
 _ZN17MagnitudeFunctionC1Ev@Base 3.2.0
 _ZN17MagnitudeFunctionC2Ev@Base 3.2.0
 _ZN17MagnitudeFunctionD0Ev@Base 3.2.0
 _ZN17MagnitudeFunctionD1Ev@Base 3.2.0
 _ZN17MagnitudeFunctionD2Ev@Base 3.2.0
 _ZN17NumeratorFunction9calculateER13MathStructureRKS0_RK17EvaluationOptions@Base 3.2.0
 _ZN17NumeratorFunctionC1Ev@Base 3.2.0
 _ZN17NumeratorFunctionC2Ev@Base 3.2.0
 _ZN17NumeratorFunctionD0Ev@Base 3.2.0
 _ZN17NumeratorFunctionD1Ev@Base 3.2.0
 _ZN17NumeratorFunctionD2Ev@Base 3.2.0
 _ZN17PermanentFunction9calculateER13MathStructureRKS0_RK17EvaluationOptions@Base 3.2.0
 _ZN17PermanentFunctionC1Ev@Base 3.2.0
 _ZN17PermanentFunctionC2Ev@Base 3.2.0
 _ZN17PermanentFunctionD0Ev@Base 3.2.0
 _ZN17PermanentFunctionD1Ev@Base 3.2.0
 _ZN17PermanentFunctionD2Ev@Base 3.2.0
 _ZN17PrecisionVariable17representsIntegerEb@Base 3.2.0
 _ZN17PrecisionVariable20representsNonIntegerEb@Base 3.2.0
 _ZN17PrecisionVariableC1Ev@Base 3.2.0
 _ZN17PrecisionVariableC2Ev@Base 3.2.0
 _ZN17PrecisionVariableD0Ev@Base 3.2.0
 _ZN17PrecisionVariableD1Ev@Base 3.2.0
 _ZN17PrecisionVariableD2Ev@Base 3.2.0
 _ZN17QalculateDateTime10addMinutesERK6Numberbb@Base 3.2.0
 _ZN17QalculateDateTime10addSecondsERK6Numberbb@Base 3.2.0
 _ZN17QalculateDateTime16setToCurrentDateEv@Base 3.2.0
 _ZN17QalculateDateTime16setToCurrentTimeEv@Base 3.2.0
 _ZN17QalculateDateTime3addERKS_@Base 3.2.0
 _ZN17QalculateDateTime3setENSt7__cxx1112basic_stringIcSt11char_traitsIcESaIcEEE@Base 3.2.0
 _ZN17QalculateDateTime3setERK6Number@Base 3.2.0
 _ZN17QalculateDateTime3setERKS_@Base 3.2.0
 _ZN17QalculateDateTime3setElii@Base 3.2.0
 _ZN17QalculateDateTime7addDaysERK6Number@Base 3.2.0
 _ZN17QalculateDateTime7setTimeEllRK6Number@Base 3.2.0
 _ZN17QalculateDateTime7setYearEl@Base 3.2.0
 _ZN17QalculateDateTime8addHoursERK6Number@Base 3.2.0
 _ZN17QalculateDateTime8addYearsERK6Number@Base 3.2.0
 _ZN17QalculateDateTime9addMonthsERK6Number@Base 3.2.0
 _ZN17QalculateDateTimeC1ENSt7__cxx1112basic_stringIcSt11char_traitsIcESaIcEEE@Base 3.2.0
 _ZN17QalculateDateTimeC1ERK6Number@Base 3.2.0
 _ZN17QalculateDateTimeC1ERKS_@Base 3.2.0
 _ZN17QalculateDateTimeC1Elii@Base 3.2.0
 _ZN17QalculateDateTimeC1Ev@Base 3.2.0
 _ZN17QalculateDateTimeC2ENSt7__cxx1112basic_stringIcSt11char_traitsIcESaIcEEE@Base 3.2.0
 _ZN17QalculateDateTimeC2ERK6Number@Base 3.2.0
 _ZN17QalculateDateTimeC2ERKS_@Base 3.2.0
 _ZN17QalculateDateTimeC2Elii@Base 3.2.0
 _ZN17QalculateDateTimeC2Ev@Base 3.2.0
 _ZN17QalculateDateTimeD1Ev@Base 3.2.0
 _ZN17QalculateDateTimeD2Ev@Base 3.2.0
 _ZN17TimeValueFunction9calculateER13MathStructureRKS0_RK17EvaluationOptions@Base 3.2.0
 _ZN17TimeValueFunctionC1Ev@Base 3.2.0
 _ZN17TimeValueFunctionC2Ev@Base 3.2.0
 _ZN17TimeValueFunctionD0Ev@Base 3.2.0
 _ZN17TimeValueFunctionD1Ev@Base 3.2.0
 _ZN17TimeValueFunctionD2Ev@Base 3.2.0
 _ZN17TimestampFunction9calculateER13MathStructureRKS0_RK17EvaluationOptions@Base 3.2.0
 _ZN17TimestampFunctionC1Ev@Base 3.2.0
 _ZN17TimestampFunctionC2Ev@Base 3.2.0
 _ZN17TimestampFunctionD0Ev@Base 3.2.0
 _ZN17TimestampFunctionD1Ev@Base 3.2.0
 _ZN17TimestampFunctionD2Ev@Base 3.2.0
 _ZN17TransposeFunction9calculateER13MathStructureRKS0_RK17EvaluationOptions@Base 3.2.0
 _ZN17TransposeFunctionC1Ev@Base 3.2.0
 _ZN17TransposeFunctionC2Ev@Base 3.2.0
 _ZN17TransposeFunctionD0Ev@Base 3.2.0
 _ZN17TransposeFunctionD1Ev@Base 3.2.0
 _ZN17TransposeFunctionD2Ev@Base 3.2.0
 _ZN17YesterdayVariable14representsRealEb@Base 3.2.0
 _ZN17YesterdayVariable16representsNumberEb@Base 3.2.0
 _ZN17YesterdayVariable17representsNonZeroEb@Base 3.2.0
 _ZN17YesterdayVariable18representsPositiveEb@Base 3.2.0
 _ZN17YesterdayVariable20representsNonIntegerEb@Base 3.2.0
 _ZN17YesterdayVariable21representsNonNegativeEb@Base 3.2.0
 _ZN17YesterdayVariableC1Ev@Base 3.2.0
 _ZN17YesterdayVariableC2Ev@Base 3.2.0
 _ZN17YesterdayVariableD0Ev@Base 3.2.0
 _ZN17YesterdayVariableD1Ev@Base 3.2.0
 _ZN17YesterdayVariableD2Ev@Base 3.2.0
 _ZN18DataObjectArgument10setDataSetEP7DataSet@Base 3.2.0
 _ZN18DataObjectArgumentC1EP7DataSetNSt7__cxx1112basic_stringIcSt11char_traitsIcESaIcEEEbb@Base 3.2.0
 _ZN18DataObjectArgumentC1EPKS_@Base 3.2.0
 _ZN18DataObjectArgumentC2EP7DataSetNSt7__cxx1112basic_stringIcSt11char_traitsIcESaIcEEEbb@Base 3.2.0
 _ZN18DataObjectArgumentC2EPKS_@Base 3.2.0
 _ZN18DataObjectArgumentD0Ev@Base 3.2.0
 _ZN18DataObjectArgumentD1Ev@Base 3.2.0
 _ZN18DataObjectArgumentD2Ev@Base 3.2.0
 _ZN18IsRationalFunction9calculateER13MathStructureRKS0_RK17EvaluationOptions@Base 3.2.0
 _ZN18IsRationalFunctionC1Ev@Base 3.2.0
 _ZN18IsRationalFunctionC2Ev@Base 3.2.0
 _ZN18IsRationalFunctionD0Ev@Base 3.2.0
 _ZN18IsRationalFunctionD1Ev@Base 3.2.0
 _ZN18IsRationalFunctionD2Ev@Base 3.2.0
 _ZN18LunarPhaseFunction9calculateER13MathStructureRKS0_RK17EvaluationOptions@Base 3.2.0
 _ZN18LunarPhaseFunctionC1Ev@Base 3.2.0
 _ZN18LunarPhaseFunctionC2Ev@Base 3.2.0
 _ZN18LunarPhaseFunctionD0Ev@Base 3.2.0
 _ZN18LunarPhaseFunctionD1Ev@Base 3.2.0
 _ZN18LunarPhaseFunctionD2Ev@Base 3.2.0
 _ZN18PercentileFunction9calculateER13MathStructureRKS0_RK17EvaluationOptions@Base 3.2.0
 _ZN18PercentileFunctionC1Ev@Base 3.2.0
 _ZN18PercentileFunctionC2Ev@Base 3.2.0
 _ZN18PercentileFunctionD0Ev@Base 3.2.0
 _ZN18PercentileFunctionD1Ev@Base 3.2.0
 _ZN18PercentileFunctionD2Ev@Base 3.2.0
 _ZN18PlotDataParametersC1Ev@Base 3.2.0
 _ZN18PlotDataParametersC2Ev@Base 3.2.0
 _ZN18StripUnitsFunction9calculateER13MathStructureRKS0_RK17EvaluationOptions@Base 3.2.0
 _ZN18StripUnitsFunctionC1Ev@Base 3.2.0
 _ZN18StripUnitsFunctionC2Ev@Base 3.2.0
 _ZN18StripUnitsFunctionD0Ev@Base 3.2.0
 _ZN18StripUnitsFunctionD1Ev@Base 3.2.0
 _ZN18StripUnitsFunctionD2Ev@Base 3.2.0
 _ZN19AliasUnit_Composite3setEP4UnitiP6Prefix@Base 3.2.0
 _ZN19AliasUnit_Composite3setEPK14ExpressionItem@Base 3.2.0
 _ZN19AliasUnit_CompositeC1EP4UnitiP6Prefix@Base 3.2.0
 _ZN19AliasUnit_CompositeC1EPKS_@Base 3.2.0
 _ZN19AliasUnit_CompositeC2EP4UnitiP6Prefix@Base 3.2.0
 _ZN19AliasUnit_CompositeC2EPKS_@Base 3.2.0
 _ZN19AliasUnit_CompositeD0Ev@Base 3.2.0
 _ZN19AliasUnit_CompositeD1Ev@Base 3.2.0
 _ZN19AliasUnit_CompositeD2Ev@Base 3.2.0
 _ZN19ConcatenateFunction9calculateER13MathStructureRKS0_RK17EvaluationOptions@Base 3.2.0
 _ZN19ConcatenateFunctionC1Ev@Base 3.2.0
 _ZN19ConcatenateFunctionC2Ev@Base 3.2.0
 _ZN19ConcatenateFunctionD0Ev@Base 3.2.0
 _ZN19ConcatenateFunctionD1Ev@Base 3.2.0
 _ZN19ConcatenateFunctionD2Ev@Base 3.2.0
 _ZN19DenominatorFunction9calculateER13MathStructureRKS0_RK17EvaluationOptions@Base 3.2.0
 _ZN19DenominatorFunctionC1Ev@Base 3.2.0
 _ZN19DenominatorFunctionC2Ev@Base 3.2.0
 _ZN19DenominatorFunctionD0Ev@Base 3.2.0
 _ZN19DenominatorFunctionD1Ev@Base 3.2.0
 _ZN19DenominatorFunctionD2Ev@Base 3.2.0
 _ZN19DeterminantFunction9calculateER13MathStructureRKS0_RK17EvaluationOptions@Base 3.2.0
 _ZN19DeterminantFunctionC1Ev@Base 3.2.0
 _ZN19DeterminantFunctionC2Ev@Base 3.2.0
 _ZN19DeterminantFunctionD0Ev@Base 3.2.0
 _ZN19DeterminantFunctionD1Ev@Base 3.2.0
 _ZN19DeterminantFunctionD2Ev@Base 3.2.0
 _ZN19InternalPrintStructC1Ev@Base 3.2.0
 _ZN19InternalPrintStructC2Ev@Base 3.2.0
 _ZN19UncertaintyFunction9calculateER13MathStructureRKS0_RK17EvaluationOptions@Base 3.2.0
 _ZN19UncertaintyFunctionC1Ev@Base 3.2.0
 _ZN19UncertaintyFunctionC2Ev@Base 3.2.0
 _ZN19UncertaintyFunctionD0Ev@Base 3.2.0
 _ZN19UncertaintyFunctionD1Ev@Base 3.2.0
 _ZN19UncertaintyFunctionD2Ev@Base 3.2.0
 _ZN20DataPropertyArgument10setDataSetEP7DataSet@Base 3.2.0
 _ZN20DataPropertyArgumentC1EP7DataSetNSt7__cxx1112basic_stringIcSt11char_traitsIcESaIcEEEbb@Base 3.2.0
 _ZN20DataPropertyArgumentC1EPKS_@Base 3.2.0
 _ZN20DataPropertyArgumentC2EP7DataSetNSt7__cxx1112basic_stringIcSt11char_traitsIcESaIcEEEbb@Base 3.2.0
 _ZN20DataPropertyArgumentC2EPKS_@Base 3.2.0
 _ZN20DataPropertyArgumentD0Ev@Base 3.2.0
 _ZN20DataPropertyArgumentD1Ev@Base 3.2.0
 _ZN20DataPropertyArgumentD2Ev@Base 3.2.0
 _ZN20MergeVectorsFunction9calculateER13MathStructureRKS0_RK17EvaluationOptions@Base 3.2.0
 _ZN20MergeVectorsFunctionC1Ev@Base 3.2.0
 _ZN20MergeVectorsFunctionC2Ev@Base 3.2.0
 _ZN20MergeVectorsFunctionD0Ev@Base 3.2.0
 _ZN20MergeVectorsFunctionD1Ev@Base 3.2.0
 _ZN20MergeVectorsFunctionD2Ev@Base 3.2.0
 _ZN21CircularShiftFunction9calculateER13MathStructureRKS0_RK17EvaluationOptions@Base 3.2.0
 _ZN21CircularShiftFunctionC1Ev@Base 3.2.0
 _ZN21CircularShiftFunctionC2Ev@Base 3.2.0
 _ZN21CircularShiftFunctionD0Ev@Base 3.2.0
 _ZN21CircularShiftFunctionD1Ev@Base 3.2.0
 _ZN21CircularShiftFunctionD2Ev@Base 3.2.0
 _ZN21ProcessMatrixFunction9calculateER13MathStructureRKS0_RK17EvaluationOptions@Base 3.2.0
 _ZN21ProcessMatrixFunctionC1Ev@Base 3.2.0
 _ZN21ProcessMatrixFunctionC2Ev@Base 3.2.0
 _ZN21ProcessMatrixFunctionD0Ev@Base 3.2.0
 _ZN21ProcessMatrixFunctionD1Ev@Base 3.2.0
 _ZN21ProcessMatrixFunctionD2Ev@Base 3.2.0
 _ZN21SolveMultipleFunction9calculateER13MathStructureRKS0_RK17EvaluationOptions@Base 3.2.0
 _ZN21SolveMultipleFunctionC1Ev@Base 3.2.0
 _ZN21SolveMultipleFunctionC2Ev@Base 3.2.0
 _ZN21SolveMultipleFunctionD0Ev@Base 3.2.0
 _ZN21SolveMultipleFunctionD1Ev@Base 3.2.0
 _ZN21SolveMultipleFunctionD2Ev@Base 3.2.0
 _ZN22ExpressionItemArgumentC1ENSt7__cxx1112basic_stringIcSt11char_traitsIcESaIcEEEbb@Base 3.2.0
 _ZN22ExpressionItemArgumentC1EPKS_@Base 3.2.0
 _ZN22ExpressionItemArgumentC2ENSt7__cxx1112basic_stringIcSt11char_traitsIcESaIcEEEbb@Base 3.2.0
 _ZN22ExpressionItemArgumentC2EPKS_@Base 3.2.0
 _ZN22ExpressionItemArgumentD0Ev@Base 3.2.0
 _ZN22ExpressionItemArgumentD1Ev@Base 3.2.0
 _ZN22ExpressionItemArgumentD2Ev@Base 3.2.0
 _ZN22GenerateVectorFunction9calculateER13MathStructureRKS0_RK17EvaluationOptions@Base 3.2.0
 _ZN22GenerateVectorFunctionC1Ev@Base 3.2.0
 _ZN22GenerateVectorFunctionC2Ev@Base 3.2.0
 _ZN22GenerateVectorFunctionD0Ev@Base 3.2.0
 _ZN22GenerateVectorFunctionD1Ev@Base 3.2.0
 _ZN22GenerateVectorFunctionD2Ev@Base 3.2.0
 _ZN22MatrixToVectorFunction9calculateER13MathStructureRKS0_RK17EvaluationOptions@Base 3.2.0
 _ZN22MatrixToVectorFunctionC1Ev@Base 3.2.0
 _ZN22MatrixToVectorFunctionC2Ev@Base 3.2.0
 _ZN22MatrixToVectorFunctionD0Ev@Base 3.2.0
 _ZN22MatrixToVectorFunctionD1Ev@Base 3.2.0
 _ZN22MatrixToVectorFunctionD2Ev@Base 3.2.0
 _ZN22MultiFactorialFunction9calculateER13MathStructureRKS0_RK17EvaluationOptions@Base 3.2.0
 _ZN22MultiFactorialFunctionC1Ev@Base 3.2.0
 _ZN22MultiFactorialFunctionC2Ev@Base 3.2.0
 _ZN22MultiFactorialFunctionD0Ev@Base 3.2.0
 _ZN22MultiFactorialFunctionD1Ev@Base 3.2.0
 _ZN22MultiFactorialFunctionD2Ev@Base 3.2.0
 _ZN22NextLunarPhaseFunction9calculateER13MathStructureRKS0_RK17EvaluationOptions@Base 3.2.0
 _ZN22NextLunarPhaseFunctionC1Ev@Base 3.2.0
 _ZN22NextLunarPhaseFunctionC2Ev@Base 3.2.0
 _ZN22NextLunarPhaseFunctionD0Ev@Base 3.2.0
 _ZN22NextLunarPhaseFunctionD1Ev@Base 3.2.0
 _ZN22NextLunarPhaseFunctionD2Ev@Base 3.2.0
 _ZN22PolynomialUnitFunction9calculateER13MathStructureRKS0_RK17EvaluationOptions@Base 3.2.0
 _ZN22PolynomialUnitFunctionC1Ev@Base 3.2.0
 _ZN22PolynomialUnitFunctionC2Ev@Base 3.2.0
 _ZN22PolynomialUnitFunctionD0Ev@Base 3.2.0
 _ZN22PolynomialUnitFunctionD1Ev@Base 3.2.0
 _ZN22PolynomialUnitFunctionD2Ev@Base 3.2.0
 _ZN22RepresentsRealFunction9calculateER13MathStructureRKS0_RK17EvaluationOptions@Base 3.2.0
 _ZN22RepresentsRealFunctionC1Ev@Base 3.2.0
 _ZN22RepresentsRealFunctionC2Ev@Base 3.2.0
 _ZN22RepresentsRealFunctionD0Ev@Base 3.2.0
 _ZN22RepresentsRealFunctionD1Ev@Base 3.2.0
 _ZN22RepresentsRealFunctionD2Ev@Base 3.2.0
 _ZN23DoubleFactorialFunction9calculateER13MathStructureRKS0_RK17EvaluationOptions@Base 3.2.0
 _ZN23DoubleFactorialFunctionC1Ev@Base 3.2.0
 _ZN23DoubleFactorialFunctionC2Ev@Base 3.2.0
 _ZN23DoubleFactorialFunctionD0Ev@Base 3.2.0
 _ZN23DoubleFactorialFunctionD1Ev@Base 3.2.0
 _ZN23DoubleFactorialFunctionD2Ev@Base 3.2.0
 _ZN23TimestampToDateFunction9calculateER13MathStructureRKS0_RK17EvaluationOptions@Base 3.2.0
 _ZN23TimestampToDateFunctionC1Ev@Base 3.2.0
 _ZN23TimestampToDateFunctionC2Ev@Base 3.2.0
 _ZN23TimestampToDateFunctionD0Ev@Base 3.2.0
 _ZN23TimestampToDateFunctionD1Ev@Base 3.2.0
 _ZN23TimestampToDateFunctionD2Ev@Base 3.2.0
 _ZN24RepresentsNumberFunction9calculateER13MathStructureRKS0_RK17EvaluationOptions@Base 3.2.0
 _ZN24RepresentsNumberFunctionC1Ev@Base 3.2.0
 _ZN24RepresentsNumberFunctionC2Ev@Base 3.2.0
 _ZN24RepresentsNumberFunctionD0Ev@Base 3.2.0
 _ZN24RepresentsNumberFunctionD1Ev@Base 3.2.0
 _ZN24RepresentsNumberFunctionD2Ev@Base 3.2.0
 _ZN25PolynomialContentFunction9calculateER13MathStructureRKS0_RK17EvaluationOptions@Base 3.2.0
 _ZN25PolynomialContentFunctionC1Ev@Base 3.2.0
 _ZN25PolynomialContentFunctionC2Ev@Base 3.2.0
 _ZN25PolynomialContentFunctionD0Ev@Base 3.2.0
 _ZN25PolynomialContentFunctionD1Ev@Base 3.2.0
 _ZN25PolynomialContentFunctionD2Ev@Base 3.2.0
 _ZN25RepresentsIntegerFunction9calculateER13MathStructureRKS0_RK17EvaluationOptions@Base 3.2.0
 _ZN25RepresentsIntegerFunctionC1Ev@Base 3.2.0
 _ZN25RepresentsIntegerFunctionC2Ev@Base 3.2.0
 _ZN25RepresentsIntegerFunctionD0Ev@Base 3.2.0
 _ZN25RepresentsIntegerFunctionD1Ev@Base 3.2.0
 _ZN25RepresentsIntegerFunctionD2Ev@Base 3.2.0
 _ZN26PolynomialPrimpartFunction9calculateER13MathStructureRKS0_RK17EvaluationOptions@Base 3.2.0
 _ZN26PolynomialPrimpartFunctionC1Ev@Base 3.2.0
 _ZN26PolynomialPrimpartFunctionC2Ev@Base 3.2.0
 _ZN26PolynomialPrimpartFunctionD0Ev@Base 3.2.0
 _ZN26PolynomialPrimpartFunctionD1Ev@Base 3.2.0
 _ZN26PolynomialPrimpartFunctionD2Ev@Base 3.2.0
 _ZN26RepresentsRationalFunction9calculateER13MathStructureRKS0_RK17EvaluationOptions@Base 3.2.0
 _ZN26RepresentsRationalFunctionC1Ev@Base 3.2.0
 _ZN26RepresentsRationalFunctionC2Ev@Base 3.2.0
 _ZN26RepresentsRationalFunctionD0Ev@Base 3.2.0
 _ZN26RepresentsRationalFunctionD1Ev@Base 3.2.0
 _ZN26RepresentsRationalFunctionD2Ev@Base 3.2.0
 _ZN33RadiansToDefaultAngleUnitFunction9calculateER13MathStructureRKS0_RK17EvaluationOptions@Base 3.2.0
 _ZN33RadiansToDefaultAngleUnitFunctionC1Ev@Base 3.2.0
 _ZN33RadiansToDefaultAngleUnitFunctionC2Ev@Base 3.2.0
 _ZN33RadiansToDefaultAngleUnitFunctionD0Ev@Base 3.2.0
 _ZN33RadiansToDefaultAngleUnitFunctionD1Ev@Base 3.2.0
 _ZN33RadiansToDefaultAngleUnitFunctionD2Ev@Base 3.2.0
 _ZN4Unit11setAsSIUnitEv@Base 3.2.0
 _ZN4Unit12setCountriesENSt7__cxx1112basic_stringIcSt11char_traitsIcESaIcEEE@Base 3.2.0
 _ZN4Unit27setUseWithPrefixesByDefaultEb@Base 3.2.0
 _ZN4Unit3setEPK14ExpressionItem@Base 3.2.0
 _ZN4Unit9setSystemENSt7__cxx1112basic_stringIcSt11char_traitsIcESaIcEEE@Base 3.2.0
 _ZN4UnitC1ENSt7__cxx1112basic_stringIcSt11char_traitsIcESaIcEEES5_S5_S5_S5_bbb@Base 3.2.0
 _ZN4UnitC1EPKS_@Base 3.2.0
 _ZN4UnitC1Ev@Base 3.2.0
 _ZN4UnitC2ENSt7__cxx1112basic_stringIcSt11char_traitsIcESaIcEEES5_S5_S5_S5_bbb@Base 3.2.0
 _ZN4UnitC2EPKS_@Base 3.2.0
 _ZN4UnitC2Ev@Base 3.2.0
 _ZN4UnitD0Ev@Base 3.2.0
 _ZN4UnitD1Ev@Base 3.2.0
 _ZN4UnitD2Ev@Base 3.2.0
 _ZN6Number10shiftRightERKS_@Base 3.2.0
 _ZN6Number11setInternalEPK12__mpz_structbb@Base 3.2.0
 _ZN6Number11setInternalERA1_K12__mpq_structbb@Base 3.2.0
 _ZN6Number11setInternalERA1_K12__mpz_structS3_bb@Base 3.2.0
 _ZN6Number11setInternalERA1_K12__mpz_structbb@Base 3.2.0
 _ZN6Number11setInternalERA1_K13__mpfr_structbb@Base 3.2.0
 _ZN6Number11setIntervalERKS_S1_b@Base 3.2.0
 _ZN6Number11setNegativeEb@Base 3.2.0
 _ZN6Number11testIntegerEv@Base 3.2.0
 _ZN6Number12setPrecisionEi@Base 3.2.0
 _ZN6Number13mergeIntervalERKS_b@Base 3.2.0
 _ZN6Number13setLogicalNotEv@Base 3.2.0
 _ZN6Number14clearImaginaryEv@Base 3.2.0
 _ZN6Number14multiFactorialERKS_@Base 3.2.0
 _ZN6Number14setApproximateEb@Base 3.2.0
 _ZN6Number14setUncertaintyERKS_b@Base 3.2.0
 _ZN6Number15doubleFactorialEv@Base 3.2.0
 _ZN6Number15setPlusInfinityEbb@Base 3.2.0
 _ZN6Number15testFloatResultEbib@Base 3.2.0
 _ZN6Number16internalRationalEv@Base 3.2.0
 _ZN6Number16setImaginaryPartERKS_@Base 3.2.0
 _ZN6Number16setImaginaryPartElll@Base 3.2.0
 _ZN6Number16setMinusInfinityEbb@Base 3.2.0
 _ZN6Number18internalLowerFloatEv@Base 3.2.0
 _ZN6Number18internalUpperFloatEv@Base 3.2.0
 _ZN6Number18intervalToMidValueEv@Base 3.2.0
 _ZN6Number18setToFloatingPointEv@Base 3.2.0
 _ZN6Number19intervalToPrecisionEl@Base 3.2.0
 _ZN6Number19markAsImaginaryPartEb@Base 3.2.0
 _ZN6Number19precisionToIntervalEv@Base 3.2.0
 _ZN6Number1eEb@Base 3.2.0
 _ZN6Number22setRelativeUncertaintyERKS_b@Base 3.2.0
 _ZN6Number2lnEv@Base 3.2.0
 _ZN6Number2piEv@Base 3.2.0
 _ZN6Number30setPrecisionAndApproximateFromERKS_@Base 3.2.0
 _ZN6Number3absEv@Base 3.2.0
 _ZN6Number3addERKS_13MathOperation@Base 3.2.0
 _ZN6Number3addERKS_@Base 3.2.0
 _ZN6Number3addEl@Base 3.2.0
 _ZN6Number3argEv@Base 3.2.0
 _ZN6Number3cosEv@Base 3.2.0
 _ZN6Number3erfEv@Base 3.2.0
 _ZN6Number3expEv@Base 3.2.0
 _ZN6Number3gcdERKS_@Base 3.2.0
 _ZN6Number3lcmERKS_@Base 3.2.0
 _ZN6Number3logERKS_@Base 3.2.0
 _ZN6Number3modERKS_@Base 3.2.0
 _ZN6Number3remERKS_@Base 3.2.0
 _ZN6Number3setENSt7__cxx1112basic_stringIcSt11char_traitsIcESaIcEEERK12ParseOptions@Base 3.2.0
 _ZN6Number3setERKS_bb@Base 3.2.0
 _ZN6Number3setElllbb@Base 3.2.0
 _ZN6Number3sinEv@Base 3.2.0
 _ZN6Number3tanEv@Base 3.2.0
 _ZN6Number4acosEv@Base 3.2.0
 _ZN6Number4airyEv@Base 3.2.0
 _ZN6Number4asinEv@Base 3.2.0
 _ZN6Number4atanEv@Base 3.2.0
 _ZN6Number4cbrtEv@Base 3.2.0
 _ZN6Number4ceilERKS_@Base 3.2.0
 _ZN6Number4ceilEv@Base 3.2.0
 _ZN6Number4coshEv@Base 3.2.0
 _ZN6Number4erfcEv@Base 3.2.0
 _ZN6Number4exp2ERKS_@Base 3.2.0
 _ZN6Number4exp2Ev@Base 3.2.0
 _ZN6Number4fracEv@Base 3.2.0
 _ZN6Number4iquoERKS_@Base 3.2.0
 _ZN6Number4iquoERKS_RS_@Base 3.2.0
 _ZN6Number4iquoEm@Base 3.2.0
 _ZN6Number4iremERKS_@Base 3.2.0
 _ZN6Number4iremERKS_RS_@Base 3.2.0
 _ZN6Number4randEv@Base 3.2.0
 _ZN6Number4rootERKS_@Base 3.2.0
 _ZN6Number4sinhEv@Base 3.2.0
 _ZN6Number4smodERKS_@Base 3.2.0
 _ZN6Number4sqrtEv@Base 3.2.0
 _ZN6Number4tanhEv@Base 3.2.0
 _ZN6Number4zetaEv@Base 3.2.0
 _ZN6Number5acoshEv@Base 3.2.0
 _ZN6Number5asinhEv@Base 3.2.0
 _ZN6Number5atan2ERKS_b@Base 3.2.0
 _ZN6Number5atanhEv@Base 3.2.0
 _ZN6Number5bitOrERKS_@Base 3.2.0
 _ZN6Number5clearEb@Base 3.2.0
 _ZN6Number5eulerEv@Base 3.2.0
 _ZN6Number5exp10ERKS_@Base 3.2.0
 _ZN6Number5exp10Ev@Base 3.2.0
 _ZN6Number5floorERKS_@Base 3.2.0
 _ZN6Number5floorEv@Base 3.2.0
 _ZN6Number5gammaEv@Base 3.2.0
 _ZN6Number5isqrtEv@Base 3.2.0
 _ZN6Number5raiseERKS_b@Base 3.2.0
 _ZN6Number5recipEv@Base 3.2.0
 _ZN6Number5roundERKS_b@Base 3.2.0
 _ZN6Number5roundEb@Base 3.2.0
 _ZN6Number5shiftERKS_@Base 3.2.0
 _ZN6Number5truncERKS_@Base 3.2.0
 _ZN6Number5truncEv@Base 3.2.0
 _ZN6Number6bitAndERKS_@Base 3.2.0
 _ZN6Number6bitCmpEj@Base 3.2.0
 _ZN6Number6bitEqvERKS_@Base 3.2.0
 _ZN6Number6bitNotEv@Base 3.2.0
 _ZN6Number6bitXorERKS_@Base 3.2.0
 _ZN6Number6cosintEv@Base 3.2.0
 _ZN6Number6divideERKS_@Base 3.2.0
 _ZN6Number6divideEl@Base 3.2.0
 _ZN6Number6expintEv@Base 3.2.0
 _ZN6Number6igammaERKS_@Base 3.2.0
 _ZN6Number6logintEv@Base 3.2.0
 _ZN6Number6negateEv@Base 3.2.0
 _ZN6Number6signumEv@Base 3.2.0
 _ZN6Number6sinintEv@Base 3.2.0
 _ZN6Number6squareEv@Base 3.2.0
 _ZN6Number7besseljERKS_@Base 3.2.0
 _ZN6Number7besselyERKS_@Base 3.2.0
 _ZN6Number7catalanEv@Base 3.2.0
 _ZN6Number7coshintEv@Base 3.2.0
 _ZN6Number7digammaEv@Base 3.2.0
 _ZN6Number7intRandERKS_@Base 3.2.0
 _ZN6Number7polylogERKS_@Base 3.2.0
 _ZN6Number7setTrueEb@Base 3.2.0
 _ZN6Number7sinhintEv@Base 3.2.0
 _ZN6Number8allrootsERKS_RSt6vectorIS_SaIS_EE@Base 3.2.0
 _ZN6Number8binomialERKS_S1_@Base 3.2.0
 _ZN6Number8lambertWEv@Base 3.2.0
 _ZN6Number8multiplyERKS_@Base 3.2.0
 _ZN6Number8multiplyEl@Base 3.2.0
 _ZN6Number8setFalseEv@Base 3.2.0
 _ZN6Number8setFloatEe@Base 3.2.0
 _ZN6Number8subtractERKS_@Base 3.2.0
 _ZN6Number8subtractEl@Base 3.2.0
 _ZN6Number9clearRealEv@Base 3.2.0
 _ZN6Number9factorialEv@Base 3.2.0
 _ZN6Number9factorizeERSt6vectorIS_SaIS_EE@Base 3.2.0
 _ZN6Number9shiftLeftERKS_@Base 3.2.0
 _ZN6Number9toBooleanEv@Base 3.2.0
 _ZN6NumberC1ENSt7__cxx1112basic_stringIcSt11char_traitsIcESaIcEEERK12ParseOptions@Base 3.2.0
 _ZN6NumberC1ERKS_@Base 3.2.0
 _ZN6NumberC1Elll@Base 3.2.0
 _ZN6NumberC1Ev@Base 3.2.0
 _ZN6NumberC2ENSt7__cxx1112basic_stringIcSt11char_traitsIcESaIcEEERK12ParseOptions@Base 3.2.0
 _ZN6NumberC2ERKS_@Base 3.2.0
 _ZN6NumberC2Elll@Base 3.2.0
 _ZN6NumberC2Ev@Base 3.2.0
 _ZN6NumberD0Ev@Base 3.2.0
 _ZN6NumberD1Ev@Base 3.2.0
 _ZN6NumberD2Ev@Base 3.2.0
 _ZN6NumberaSERKS_@Base 3.2.0
 _ZN6NumberaSEl@Base 3.2.0
 _ZN6NumberdVERKS_@Base 3.2.0
 _ZN6NumberdVEl@Base 3.2.0
 _ZN6NumbereOERKS_@Base 3.2.0
 _ZN6NumbereOEl@Base 3.2.0
 _ZN6NumbermIERKS_@Base 3.2.0
 _ZN6NumbermIEl@Base 3.2.0
 _ZN6NumbermLERKS_@Base 3.2.0
 _ZN6NumbermLEl@Base 3.2.0
 _ZN6NumbermmEi@Base 3.2.0
 _ZN6NumberpLERKS_@Base 3.2.0
 _ZN6NumberpLEl@Base 3.2.0
 _ZN6NumberppEi@Base 3.2.0
 _ZN6Prefix11setLongNameENSt7__cxx1112basic_stringIcSt11char_traitsIcESaIcEEE@Base 3.2.0
 _ZN6Prefix12setShortNameENSt7__cxx1112basic_stringIcSt11char_traitsIcESaIcEEE@Base 3.2.0
 _ZN6Prefix14setUnicodeNameENSt7__cxx1112basic_stringIcSt11char_traitsIcESaIcEEE@Base 3.2.0
 _ZN6PrefixC1ENSt7__cxx1112basic_stringIcSt11char_traitsIcESaIcEEES5_S5_@Base 3.2.0
 _ZN6PrefixC2ENSt7__cxx1112basic_stringIcSt11char_traitsIcESaIcEEES5_S5_@Base 3.2.0
 _ZN6PrefixD0Ev@Base 3.2.0
 _ZN6PrefixD1Ev@Base 3.2.0
 _ZN6PrefixD2Ev@Base 3.2.0
 _ZN6Thread24enableAsynchronousCancelEv@Base 3.2.0
 _ZN6Thread5doRunEPv@Base 3.2.0
 _ZN6Thread5startEv@Base 3.2.0
 _ZN6Thread6cancelEv@Base 3.2.0
 _ZN6Thread9doCleanupEPv@Base 3.2.0
 _ZN6ThreadC1Ev@Base 3.2.0
 _ZN6ThreadC2Ev@Base 3.2.0
 _ZN6ThreadD0Ev@Base 3.2.0
 _ZN6ThreadD1Ev@Base 3.2.0
 _ZN6ThreadD2Ev@Base 3.2.0
 _ZN7DataSet11addPropertyEP12DataProperty@Base 3.2.0
 _ZN7DataSet11delPropertyEP12DataProperty@Base 3.2.0
 _ZN7DataSet11delPropertyEPN9__gnu_cxx17__normal_iteratorIPP12DataPropertySt6vectorIS3_SaIS3_EEEE@Base 3.2.0
 _ZN7DataSet11getPropertyENSt7__cxx1112basic_stringIcSt11char_traitsIcESaIcEEE@Base 3.2.0
 _ZN7DataSet11loadObjectsEPKcb@Base 3.2.0
 _ZN7DataSet11saveObjectsEPKcb@Base 3.2.0
 _ZN7DataSet12setCopyrightENSt7__cxx1112basic_stringIcSt11char_traitsIcESaIcEEE@Base 3.2.0
 _ZN7DataSet13getNextObjectEPN9__gnu_cxx17__normal_iteratorIPP10DataObjectSt6vectorIS3_SaIS3_EEEE@Base 3.2.0
 _ZN7DataSet14getFirstObjectEPN9__gnu_cxx17__normal_iteratorIPP10DataObjectSt6vectorIS3_SaIS3_EEEE@Base 3.2.0
 _ZN7DataSet15getNextPropertyEPN9__gnu_cxx17__normal_iteratorIPP12DataPropertySt6vectorIS3_SaIS3_EEEE@Base 3.2.0
 _ZN7DataSet15printPropertiesB5cxx11EP10DataObject@Base 3.2.0
 _ZN7DataSet15printPropertiesENSt7__cxx1112basic_stringIcSt11char_traitsIcESaIcEEE@Base 3.2.0
 _ZN7DataSet16getFirstPropertyEPN9__gnu_cxx17__normal_iteratorIPP12DataPropertySt6vectorIS3_SaIS3_EEEE@Base 3.2.0
 _ZN7DataSet16setObjectsLoadedEb@Base 3.2.0
 _ZN7DataSet17getObjectPropertyENSt7__cxx1112basic_stringIcSt11char_traitsIcESaIcEEES5_@Base 3.2.0
 _ZN7DataSet18setDefaultDataFileENSt7__cxx1112basic_stringIcSt11char_traitsIcESaIcEEE@Base 3.2.0
 _ZN7DataSet18setDefaultPropertyENSt7__cxx1112basic_stringIcSt11char_traitsIcESaIcEEE@Base 3.2.0
 _ZN7DataSet19getNextPropertyNameB5cxx11EPN9__gnu_cxx17__normal_iteratorIPP12DataPropertySt6vectorIS3_SaIS3_EEEE@Base 3.2.0
 _ZN7DataSet20getFirstPropertyNameB5cxx11EPN9__gnu_cxx17__normal_iteratorIPP12DataPropertySt6vectorIS3_SaIS3_EEEE@Base 3.2.0
 _ZN7DataSet21getPrimaryKeyPropertyEv@Base 3.2.0
 _ZN7DataSet22getObjectProperyStructENSt7__cxx1112basic_stringIcSt11char_traitsIcESaIcEEES5_@Base 3.2.0
 _ZN7DataSet28getObjectPropertyInputStringENSt7__cxx1112basic_stringIcSt11char_traitsIcESaIcEEES5_@Base 3.2.0
 _ZN7DataSet30getObjectPropertyDisplayStringENSt7__cxx1112basic_stringIcSt11char_traitsIcESaIcEEES5_@Base 3.2.0
 _ZN7DataSet3setEPK14ExpressionItem@Base 3.2.0
 _ZN7DataSet9addObjectEP10DataObject@Base 3.2.0
 _ZN7DataSet9calculateER13MathStructureRKS0_RK17EvaluationOptions@Base 3.2.0
 _ZN7DataSet9delObjectEP10DataObject@Base 3.2.0
 _ZN7DataSet9delObjectEPN9__gnu_cxx17__normal_iteratorIPP10DataObjectSt6vectorIS3_SaIS3_EEEE@Base 3.2.0
 _ZN7DataSet9getObjectENSt7__cxx1112basic_stringIcSt11char_traitsIcESaIcEEE@Base 3.2.0
 _ZN7DataSet9getObjectERK13MathStructure@Base 3.2.0
 _ZN7DataSetC1ENSt7__cxx1112basic_stringIcSt11char_traitsIcESaIcEEES5_S5_S5_S5_b@Base 3.2.0
 _ZN7DataSetC1EPKS_@Base 3.2.0
 _ZN7DataSetC2ENSt7__cxx1112basic_stringIcSt11char_traitsIcESaIcEEES5_S5_S5_S5_b@Base 3.2.0
 _ZN7DataSetC2EPKS_@Base 3.2.0
 _ZN7DataSetD0Ev@Base 3.2.0
 _ZN7DataSetD1Ev@Base 3.2.0
 _ZN7DataSetD2Ev@Base 3.2.0
 _ZN8Argument15setHandleVectorEb@Base 3.2.0
 _ZN8Argument16setMatrixAllowedEb@Base 3.2.0
 _ZN8Argument16setZeroForbiddenEb@Base 3.2.0
 _ZN8Argument17setIsLastArgumentEb@Base 3.2.0
 _ZN8Argument18setCustomConditionENSt7__cxx1112basic_stringIcSt11char_traitsIcESaIcEEE@Base 3.2.0
 _ZN8Argument21setRationalPolynomialEb@Base 3.2.0
 _ZN8Argument3setEPKS_@Base 3.2.0
 _ZN8Argument7setNameENSt7__cxx1112basic_stringIcSt11char_traitsIcESaIcEEE@Base 3.2.0
 _ZN8Argument8setTestsEb@Base 3.2.0
 _ZN8Argument9setAlertsEb@Base 3.2.0
 _ZN8ArgumentC1ENSt7__cxx1112basic_stringIcSt11char_traitsIcESaIcEEEbb@Base 3.2.0
 _ZN8ArgumentC1EPKS_@Base 3.2.0
 _ZN8ArgumentC2ENSt7__cxx1112basic_stringIcSt11char_traitsIcESaIcEEEbb@Base 3.2.0
 _ZN8ArgumentC2EPKS_@Base 3.2.0
 _ZN8ArgumentD0Ev@Base 3.2.0
 _ZN8ArgumentD1Ev@Base 3.2.0
 _ZN8ArgumentD2Ev@Base 3.2.0
 _ZN8Variable13representsOddEb@Base 3.2.0
 _ZN8Variable14representsEvenEb@Base 3.2.0
 _ZN8Variable14representsRealEb@Base 3.2.0
 _ZN8Variable16representsNumberEb@Base 3.2.0
 _ZN8Variable16representsScalarEv@Base 3.2.0
 _ZN8Variable17representsBooleanEv@Base 3.2.0
 _ZN8Variable17representsComplexEb@Base 3.2.0
 _ZN8Variable17representsIntegerEb@Base 3.2.0
 _ZN8Variable17representsNonZeroEb@Base 3.2.0
 _ZN8Variable18representsFractionEb@Base 3.2.0
 _ZN8Variable18representsNegativeEb@Base 3.2.0
 _ZN8Variable18representsPositiveEb@Base 3.2.0
 _ZN8Variable18representsRationalEb@Base 3.2.0
 _ZN8Variable19representsNonMatrixEv@Base 3.2.0
 _ZN8Variable19representsUndefinedEbbb@Base 3.2.0
 _ZN8Variable20representsNonComplexEb@Base 3.2.0
 _ZN8Variable20representsNonIntegerEb@Base 3.2.0
 _ZN8Variable21representsNonNegativeEb@Base 3.2.0
 _ZN8Variable21representsNonPositiveEb@Base 3.2.0
 _ZN8Variable3setEPK14ExpressionItem@Base 3.2.0
 _ZN8VariableC1ENSt7__cxx1112basic_stringIcSt11char_traitsIcESaIcEEES5_S5_bbb@Base 3.2.0
 _ZN8VariableC1EPKS_@Base 3.2.0
 _ZN8VariableC1Ev@Base 3.2.0
 _ZN8VariableC2ENSt7__cxx1112basic_stringIcSt11char_traitsIcESaIcEEES5_S5_bbb@Base 3.2.0
 _ZN8VariableC2EPKS_@Base 3.2.0
 _ZN8VariableC2Ev@Base 3.2.0
 _ZN8VariableD0Ev@Base 3.2.0
 _ZN8VariableD1Ev@Base 3.2.0
 _ZN8VariableD2Ev@Base 3.2.0
 _ZN8sym_descD1Ev@Base 3.2.0
 _ZN8sym_descD2Ev@Base 3.2.0
 _ZN9AliasUnit11setBaseUnitEP4Unit@Base 3.2.0
 _ZN9AliasUnit11setExponentEi@Base 3.2.0
 _ZN9AliasUnit13setExpressionENSt7__cxx1112basic_stringIcSt11char_traitsIcESaIcEEE@Base 3.2.0
 _ZN9AliasUnit14setMixWithBaseEi@Base 3.2.0
 _ZN9AliasUnit14setUncertaintyENSt7__cxx1112basic_stringIcSt11char_traitsIcESaIcEEEb@Base 3.2.0
 _ZN9AliasUnit20setInverseExpressionENSt7__cxx1112basic_stringIcSt11char_traitsIcESaIcEEE@Base 3.2.0
 _ZN9AliasUnit21setMixWithBaseMinimumEi@Base 3.2.0
 _ZN9AliasUnit3setEPK14ExpressionItem@Base 3.2.0
 _ZN9AliasUnitC1ENSt7__cxx1112basic_stringIcSt11char_traitsIcESaIcEEES5_S5_S5_S5_P4UnitS5_iS5_bbb@Base 3.2.0
 _ZN9AliasUnitC1EPKS_@Base 3.2.0
 _ZN9AliasUnitC1Ev@Base 3.2.0
 _ZN9AliasUnitC2ENSt7__cxx1112basic_stringIcSt11char_traitsIcESaIcEEES5_S5_S5_S5_P4UnitS5_iS5_bbb@Base 3.2.0
 _ZN9AliasUnitC2EPKS_@Base 3.2.0
 _ZN9AliasUnitC2Ev@Base 3.2.0
 _ZN9AliasUnitD0Ev@Base 3.2.0
 _ZN9AliasUnitD1Ev@Base 3.2.0
 _ZN9AliasUnitD2Ev@Base 3.2.0
 _ZN9EVariableC1Ev@Base 3.2.0
 _ZN9EVariableC2Ev@Base 3.2.0
 _ZN9EVariableD0Ev@Base 3.2.0
 _ZN9EVariableD1Ev@Base 3.2.0
 _ZN9EVariableD2Ev@Base 3.2.0
 _ZNK10Calculator10parseSignsERNSt7__cxx1112basic_stringIcSt11char_traitsIcESaIcEEEb@Base 3.2.0
 _ZNK10Calculator11getFunctionEm@Base 3.2.0
 _ZNK10Calculator11getVariableEm@Base 3.2.0
 _ZNK10Calculator12RPNStackSizeEv@Base 3.2.0
 _ZNK10Calculator12getPrecisionEv@Base 3.2.0
 _ZNK10Calculator12isControlledEv@Base 3.2.0
 _ZNK10Calculator13localToStringB5cxx11Eb@Base 3.2.0
 _ZNK10Calculator14abortedMessageB5cxx11Ev@Base 3.2.0
 _ZNK10Calculator14getExactPrefixERK6Numberi@Base 3.2.0
 _ZNK10Calculator14getRPNRegisterEm@Base 3.2.0
 _ZNK10Calculator14timedOutStringB5cxx11Ev@Base 3.2.0
 _ZNK10Calculator15customInputBaseEv@Base 3.2.0
 _ZNK10Calculator15getDecimalPointB5cxx11Ev@Base 3.2.0
 _ZNK10Calculator15hasToExpressionERKNSt7__cxx1112basic_stringIcSt11char_traitsIcESaIcEEEb@Base 3.2.0
 _ZNK10Calculator16customOutputBaseEv@Base 3.2.0
 _ZNK10Calculator17exchangeRatesUsedEv@Base 3.2.0
 _ZNK10Calculator17temporaryCategoryB5cxx11Ev@Base 3.2.0
 _ZNK10Calculator18localizeExpressionENSt7__cxx1112basic_stringIcSt11char_traitsIcESaIcEEERK12ParseOptions@Base 3.2.0
 _ZNK10Calculator18printingControlledEv@Base 3.2.0
 _ZNK10Calculator18showArgumentErrorsEv@Base 3.2.0
 _ZNK10Calculator19messagePrintOptionsEv@Base 3.2.0
 _ZNK10Calculator20getExactBinaryPrefixEii@Base 3.2.0
 _ZNK10Calculator20separateToExpressionERNSt7__cxx1112basic_stringIcSt11char_traitsIcESaIcEEES6_RK17EvaluationOptionsbb@Base 3.2.0
 _ZNK10Calculator20unlocalizeExpressionENSt7__cxx1112basic_stringIcSt11char_traitsIcESaIcEEERK12ParseOptions@Base 3.2.0
 _ZNK10Calculator20variableUnitsEnabledEv@Base 3.2.0
 _ZNK10Calculator21getExactDecimalPrefixEii@Base 3.2.0
 _ZNK10Calculator22getNearestBinaryPrefixEii@Base 3.2.0
 _ZNK10Calculator22getOptimalBinaryPrefixERK6NumberS2_@Base 3.2.0
 _ZNK10Calculator22getOptimalBinaryPrefixEii@Base 3.2.0
 _ZNK10Calculator22printingAbortedMessageB5cxx11Ev@Base 3.2.0
 _ZNK10Calculator22unitIsUsedByOtherUnitsEPK4Unit@Base 3.2.0
 _ZNK10Calculator22usesIntervalArithmeticEv@Base 3.2.0
 _ZNK10Calculator23getNearestDecimalPrefixEii@Base 3.2.0
 _ZNK10Calculator23getOptimalDecimalPrefixERK6NumberS2_b@Base 3.2.0
 _ZNK10Calculator23getOptimalDecimalPrefixEiib@Base 3.2.0
 _ZNK10Calculator27exchangeRatesWarningEnabledEv@Base 3.2.0
 _ZNK10Calculator7getUnitEm@Base 3.2.0
 _ZNK10Calculator8getCommaB5cxx11Ev@Base 3.2.0
 _ZNK10Calculator9getPrefixENSt7__cxx1112basic_stringIcSt11char_traitsIcESaIcEEE@Base 3.2.0
 _ZNK10Calculator9getPrefixEm@Base 3.2.0
 _ZNK10CiFunction14representsRealERK13MathStructureb@Base 3.2.0
 _ZNK10CiFunction16representsNumberERK13MathStructureb@Base 3.2.0
 _ZNK10CiFunction20representsNonComplexERK13MathStructureb@Base 3.2.0
 _ZNK10CiFunction4copyEv@Base 3.2.0
 _ZNK10DataObject14isUserModifiedEv@Base 3.2.0
 _ZNK10DataObject9parentSetEv@Base 3.2.0
 _ZNK10EiFunction14representsRealERK13MathStructureb@Base 3.2.0
 _ZNK10EiFunction16representsNumberERK13MathStructureb@Base 3.2.0
 _ZNK10EiFunction20representsNonComplexERK13MathStructureb@Base 3.2.0
 _ZNK10EiFunction4copyEv@Base 3.2.0
 _ZNK10IFFunction4copyEv@Base 3.2.0
 _ZNK10ImFunction13representsOddERK13MathStructureb@Base 3.2.0
 _ZNK10ImFunction14representsEvenERK13MathStructureb@Base 3.2.0
 _ZNK10ImFunction14representsRealERK13MathStructureb@Base 3.2.0
 _ZNK10ImFunction16representsNumberERK13MathStructureb@Base 3.2.0
 _ZNK10ImFunction17representsComplexERK13MathStructureb@Base 3.2.0
 _ZNK10ImFunction17representsIntegerERK13MathStructureb@Base 3.2.0
 _ZNK10ImFunction17representsNonZeroERK13MathStructureb@Base 3.2.0
 _ZNK10ImFunction18representsNegativeERK13MathStructureb@Base 3.2.0
 _ZNK10ImFunction18representsPositiveERK13MathStructureb@Base 3.2.0
 _ZNK10ImFunction18representsRationalERK13MathStructureb@Base 3.2.0
 _ZNK10ImFunction19representsUndefinedERK13MathStructure@Base 3.2.0
 _ZNK10ImFunction20representsNonComplexERK13MathStructureb@Base 3.2.0
 _ZNK10ImFunction21representsNonNegativeERK13MathStructureb@Base 3.2.0
 _ZNK10ImFunction21representsNonPositiveERK13MathStructureb@Base 3.2.0
 _ZNK10ImFunction4copyEv@Base 3.2.0
 _ZNK10LiFunction14representsRealERK13MathStructureb@Base 3.2.0
 _ZNK10LiFunction16representsNumberERK13MathStructureb@Base 3.2.0
 _ZNK10LiFunction20representsNonComplexERK13MathStructureb@Base 3.2.0
 _ZNK10LiFunction4copyEv@Base 3.2.0
 _ZNK10PiVariable4copyEv@Base 3.2.0
 _ZNK10PiVariable9calculateER13MathStructure@Base 3.2.0
 _ZNK10ReFunction13representsOddERK13MathStructureb@Base 3.2.0
 _ZNK10ReFunction14representsEvenERK13MathStructureb@Base 3.2.0
 _ZNK10ReFunction14representsRealERK13MathStructureb@Base 3.2.0
 _ZNK10ReFunction16representsNumberERK13MathStructureb@Base 3.2.0
 _ZNK10ReFunction17representsComplexERK13MathStructureb@Base 3.2.0
 _ZNK10ReFunction17representsIntegerERK13MathStructureb@Base 3.2.0
 _ZNK10ReFunction17representsNonZeroERK13MathStructureb@Base 3.2.0
 _ZNK10ReFunction18representsNegativeERK13MathStructureb@Base 3.2.0
 _ZNK10ReFunction18representsPositiveERK13MathStructureb@Base 3.2.0
 _ZNK10ReFunction18representsRationalERK13MathStructureb@Base 3.2.0
 _ZNK10ReFunction19representsUndefinedERK13MathStructure@Base 3.2.0
 _ZNK10ReFunction20representsNonComplexERK13MathStructureb@Base 3.2.0
 _ZNK10ReFunction21representsNonNegativeERK13MathStructureb@Base 3.2.0
 _ZNK10ReFunction21representsNonPositiveERK13MathStructureb@Base 3.2.0
 _ZNK10ReFunction4copyEv@Base 3.2.0
 _ZNK10SiFunction14representsRealERK13MathStructureb@Base 3.2.0
 _ZNK10SiFunction16representsNumberERK13MathStructureb@Base 3.2.0
 _ZNK10SiFunction20representsNonComplexERK13MathStructureb@Base 3.2.0
 _ZNK10SiFunction4copyEv@Base 3.2.0
 _ZNK10liFunction14representsRealERK13MathStructureb@Base 3.2.0
 _ZNK10liFunction16representsNumberERK13MathStructureb@Base 3.2.0
 _ZNK10liFunction20representsNonComplexERK13MathStructureb@Base 3.2.0
 _ZNK10liFunction4copyEv@Base 3.2.0
 _ZNK11AbsFunction13representsOddERK13MathStructureb@Base 3.2.0
 _ZNK11AbsFunction14representsEvenERK13MathStructureb@Base 3.2.0
 _ZNK11AbsFunction14representsRealERK13MathStructureb@Base 3.2.0
 _ZNK11AbsFunction16representsNumberERK13MathStructureb@Base 3.2.0
 _ZNK11AbsFunction17representsComplexERK13MathStructureb@Base 3.2.0
 _ZNK11AbsFunction17representsIntegerERK13MathStructureb@Base 3.2.0
 _ZNK11AbsFunction17representsNonZeroERK13MathStructureb@Base 3.2.0
 _ZNK11AbsFunction18representsNegativeERK13MathStructureb@Base 3.2.0
 _ZNK11AbsFunction18representsPositiveERK13MathStructureb@Base 3.2.0
 _ZNK11AbsFunction18representsRationalERK13MathStructureb@Base 3.2.0
 _ZNK11AbsFunction19representsUndefinedERK13MathStructure@Base 3.2.0
 _ZNK11AbsFunction20representsNonComplexERK13MathStructureb@Base 3.2.0
 _ZNK11AbsFunction21representsNonNegativeERK13MathStructureb@Base 3.2.0
 _ZNK11AbsFunction21representsNonPositiveERK13MathStructureb@Base 3.2.0
 _ZNK11AbsFunction4copyEv@Base 3.2.0
 _ZNK11ArgFunction14representsRealERK13MathStructureb@Base 3.2.0
 _ZNK11ArgFunction16representsNumberERK13MathStructureb@Base 3.2.0
 _ZNK11ArgFunction20representsNonComplexERK13MathStructureb@Base 3.2.0
 _ZNK11ArgFunction4copyEv@Base 3.2.0
 _ZNK11ArgumentSet11getArgumentEm@Base 3.2.0
 _ZNK11ArgumentSet12subprintlongB5cxx11Ev@Base 3.2.0
 _ZNK11ArgumentSet14countArgumentsEv@Base 3.2.0
 _ZNK11ArgumentSet4copyEv@Base 3.2.0
 _ZNK11ArgumentSet4typeEv@Base 3.2.0
 _ZNK11ArgumentSet5printB5cxx11Ev@Base 3.2.0
 _ZNK11ArgumentSet7subtestER13MathStructureRK17EvaluationOptions@Base 3.2.0
 _ZNK11Assumptions16includeEqualsMaxEv@Base 3.2.0
 _ZNK11Assumptions16includeEqualsMinEv@Base 3.2.0
 _ZNK11Assumptions3maxEv@Base 3.2.0
 _ZNK11Assumptions3minEv@Base 3.2.0
 _ZNK11BinFunction4copyEv@Base 3.2.0
 _ZNK11ChiFunction14representsRealERK13MathStructureb@Base 3.2.0
 _ZNK11ChiFunction16representsNumberERK13MathStructureb@Base 3.2.0
 _ZNK11ChiFunction20representsNonComplexERK13MathStructureb@Base 3.2.0
 _ZNK11ChiFunction4copyEv@Base 3.2.0
 _ZNK11CosFunction14representsRealERK13MathStructureb@Base 3.2.0
 _ZNK11CosFunction16representsNumberERK13MathStructureb@Base 3.2.0
 _ZNK11CosFunction20representsNonComplexERK13MathStructureb@Base 3.2.0
 _ZNK11CosFunction4copyEv@Base 3.2.0
 _ZNK11DayFunction4copyEv@Base 3.2.0
 _ZNK11ErfFunction4copyEv@Base 3.2.0
 _ZNK11ExpFunction4copyEv@Base 3.2.0
 _ZNK11ForFunction4copyEv@Base 3.2.0
 _ZNK11GcdFunction4copyEv@Base 3.2.0
 _ZNK11HexFunction4copyEv@Base 3.2.0
 _ZNK11IntFunction4copyEv@Base 3.2.0
 _ZNK11LcmFunction4copyEv@Base 3.2.0
 _ZNK11LogFunction13representsOddERK13MathStructureb@Base 3.2.0
 _ZNK11LogFunction14representsEvenERK13MathStructureb@Base 3.2.0
 _ZNK11LogFunction14representsRealERK13MathStructureb@Base 3.2.0
 _ZNK11LogFunction16representsNumberERK13MathStructureb@Base 3.2.0
 _ZNK11LogFunction17representsComplexERK13MathStructureb@Base 3.2.0
 _ZNK11LogFunction17representsIntegerERK13MathStructureb@Base 3.2.0
 _ZNK11LogFunction17representsNonZeroERK13MathStructureb@Base 3.2.0
 _ZNK11LogFunction18representsNegativeERK13MathStructureb@Base 3.2.0
 _ZNK11LogFunction18representsPositiveERK13MathStructureb@Base 3.2.0
 _ZNK11LogFunction18representsRationalERK13MathStructureb@Base 3.2.0
 _ZNK11LogFunction19representsUndefinedERK13MathStructure@Base 3.2.0
 _ZNK11LogFunction20representsNonComplexERK13MathStructureb@Base 3.2.0
 _ZNK11LogFunction21representsNonNegativeERK13MathStructureb@Base 3.2.0
 _ZNK11LogFunction21representsNonPositiveERK13MathStructureb@Base 3.2.0
 _ZNK11LogFunction4copyEv@Base 3.2.0
 _ZNK11MaxFunction4copyEv@Base 3.2.0
 _ZNK11MinFunction4copyEv@Base 3.2.0
 _ZNK11ModFunction4copyEv@Base 3.2.0
 _ZNK11NowVariable4copyEv@Base 3.2.0
 _ZNK11NowVariable9calculateER13MathStructure@Base 3.2.0
 _ZNK11OctFunction4copyEv@Base 3.2.0
 _ZNK11OddFunction17representsBooleanERK13MathStructure@Base 3.2.0
 _ZNK11OddFunction4copyEv@Base 3.2.0
 _ZNK11RemFunction4copyEv@Base 3.2.0
 _ZNK11RowFunction4copyEv@Base 3.2.0
 _ZNK11ShiFunction14representsRealERK13MathStructureb@Base 3.2.0
 _ZNK11ShiFunction16representsNumberERK13MathStructureb@Base 3.2.0
 _ZNK11ShiFunction20representsNonComplexERK13MathStructureb@Base 3.2.0
 _ZNK11ShiFunction4copyEv@Base 3.2.0
 _ZNK11SinFunction14representsRealERK13MathStructureb@Base 3.2.0
 _ZNK11SinFunction16representsNumberERK13MathStructureb@Base 3.2.0
 _ZNK11SinFunction20representsNonComplexERK13MathStructureb@Base 3.2.0
 _ZNK11SinFunction4copyEv@Base 3.2.0
 _ZNK11SumFunction4copyEv@Base 3.2.0
 _ZNK11TanFunction14representsRealERK13MathStructureb@Base 3.2.0
 _ZNK11TanFunction16representsNumberERK13MathStructureb@Base 3.2.0
 _ZNK11TanFunction20representsNonComplexERK13MathStructureb@Base 3.2.0
 _ZNK11TanFunction4copyEv@Base 3.2.0
 _ZNK11XorFunction17representsBooleanERK13MathStructure@Base 3.2.0
 _ZNK11XorFunction4copyEv@Base 3.2.0
 _ZNK12AcosFunction16representsNumberERK13MathStructureb@Base 3.2.0
 _ZNK12AcosFunction4copyEv@Base 3.2.0
 _ZNK12AiryFunction4copyEv@Base 3.2.0
 _ZNK12AreaFunction4copyEv@Base 3.2.0
 _ZNK12AsinFunction16representsNumberERK13MathStructureb@Base 3.2.0
 _ZNK12AsinFunction4copyEv@Base 3.2.0
 _ZNK12AtanFunction14representsRealERK13MathStructureb@Base 3.2.0
 _ZNK12AtanFunction16representsNumberERK13MathStructureb@Base 3.2.0
 _ZNK12AtanFunction20representsNonComplexERK13MathStructureb@Base 3.2.0
 _ZNK12AtanFunction4copyEv@Base 3.2.0
 _ZNK12BaseFunction4copyEv@Base 3.2.0
 _ZNK12BetaFunction4copyEv@Base 3.2.0
 _ZNK12BinaryPrefix4typeEv@Base 3.2.0
 _ZNK12BinaryPrefix5valueERK6Number@Base 3.2.0
 _ZNK12BinaryPrefix5valueEi@Base 3.2.0
 _ZNK12BinaryPrefix5valueEv@Base 3.2.0
 _ZNK12BinaryPrefix8exponentERK6Number@Base 3.2.0
 _ZNK12BinaryPrefix8exponentEi@Base 3.2.0
 _ZNK12CbrtFunction4copyEv@Base 3.2.0
 _ZNK12CeilFunction13representsOddERK13MathStructureb@Base 3.2.0
 _ZNK12CeilFunction14representsEvenERK13MathStructureb@Base 3.2.0
 _ZNK12CeilFunction14representsRealERK13MathStructureb@Base 3.2.0
 _ZNK12CeilFunction16representsNumberERK13MathStructureb@Base 3.2.0
 _ZNK12CeilFunction17representsComplexERK13MathStructureb@Base 3.2.0
 _ZNK12CeilFunction17representsIntegerERK13MathStructureb@Base 3.2.0
 _ZNK12CeilFunction17representsNonZeroERK13MathStructureb@Base 3.2.0
 _ZNK12CeilFunction18representsNegativeERK13MathStructureb@Base 3.2.0
 _ZNK12CeilFunction18representsPositiveERK13MathStructureb@Base 3.2.0
 _ZNK12CeilFunction18representsRationalERK13MathStructureb@Base 3.2.0
 _ZNK12CeilFunction19representsUndefinedERK13MathStructure@Base 3.2.0
 _ZNK12CeilFunction20representsNonComplexERK13MathStructureb@Base 3.2.0
 _ZNK12CeilFunction21representsNonNegativeERK13MathStructureb@Base 3.2.0
 _ZNK12CeilFunction21representsNonPositiveERK13MathStructureb@Base 3.2.0
 _ZNK12CeilFunction4copyEv@Base 3.2.0
 _ZNK12CharFunction4copyEv@Base 3.2.0
 _ZNK12CoshFunction14representsRealERK13MathStructureb@Base 3.2.0
 _ZNK12CoshFunction16representsNumberERK13MathStructureb@Base 3.2.0
 _ZNK12CoshFunction20representsNonComplexERK13MathStructureb@Base 3.2.0
 _ZNK12CoshFunction4copyEv@Base 3.2.0
 _ZNK12DataProperty10countNamesEv@Base 3.2.0
 _ZNK12DataProperty11descriptionB5cxx11Ev@Base 3.2.0
 _ZNK12DataProperty12propertyTypeEv@Base 3.2.0
 _ZNK12DataProperty12usesBracketsEv@Base 3.2.0
 _ZNK12DataProperty13getUnitStringB5cxx11Ev@Base 3.2.0
 _ZNK12DataProperty13isApproximateEv@Base 3.2.0
 _ZNK12DataProperty14isUserModifiedEv@Base 3.2.0
 _ZNK12DataProperty15isCaseSensitiveEv@Base 3.2.0
 _ZNK12DataProperty15nameIsReferenceEm@Base 3.2.0
 _ZNK12DataProperty16getReferenceNameB5cxx11Ev@Base 3.2.0
 _ZNK12DataProperty5isKeyEv@Base 3.2.0
 _ZNK12DataProperty5titleB5cxx11Eb@Base 3.2.0
 _ZNK12DataProperty7getNameB5cxx11Em@Base 3.2.0
 _ZNK12DataProperty8isHiddenEv@Base 3.2.0
 _ZNK12DataProperty9parentSetEv@Base 3.2.0
 _ZNK12DateArgument12subprintlongB5cxx11Ev@Base 3.2.0
 _ZNK12DateArgument4copyEv@Base 3.2.0
 _ZNK12DateArgument4typeEv@Base 3.2.0
 _ZNK12DateArgument5parseEP13MathStructureRKNSt7__cxx1112basic_stringIcSt11char_traitsIcESaIcEEERK12ParseOptions@Base 3.2.0
 _ZNK12DateArgument5printB5cxx11Ev@Base 3.2.0
 _ZNK12DateArgument7subtestER13MathStructureRK17EvaluationOptions@Base 3.2.0
 _ZNK12DateFunction4copyEv@Base 3.2.0
 _ZNK12DaysFunction4copyEv@Base 3.2.0
 _ZNK12ErfcFunction4copyEv@Base 3.2.0
 _ZNK12EvenFunction17representsBooleanERK13MathStructure@Base 3.2.0
 _ZNK12EvenFunction4copyEv@Base 3.2.0
 _ZNK12FileArgument12subprintlongB5cxx11Ev@Base 3.2.0
 _ZNK12FileArgument4copyEv@Base 3.2.0
 _ZNK12FileArgument4typeEv@Base 3.2.0
 _ZNK12FileArgument5printB5cxx11Ev@Base 3.2.0
 _ZNK12FileArgument7subtestER13MathStructureRK17EvaluationOptions@Base 3.2.0
 _ZNK12FracFunction4copyEv@Base 3.2.0
 _ZNK12LoadFunction4copyEv@Base 3.2.0
 _ZNK12LognFunction4copyEv@Base 3.2.0
 _ZNK12MathFunction13representsOddERK13MathStructureb@Base 3.2.0
 _ZNK12MathFunction14representsEvenERK13MathStructureb@Base 3.2.0
 _ZNK12MathFunction14representsRealERK13MathStructureb@Base 3.2.0
 _ZNK12MathFunction15getDefaultValueB5cxx11Em@Base 3.2.0
 _ZNK12MathFunction16representsNumberERK13MathStructureb@Base 3.2.0
 _ZNK12MathFunction16representsScalarERK13MathStructure@Base 3.2.0
 _ZNK12MathFunction17representsBooleanERK13MathStructure@Base 3.2.0
 _ZNK12MathFunction17representsComplexERK13MathStructureb@Base 3.2.0
 _ZNK12MathFunction17representsIntegerERK13MathStructureb@Base 3.2.0
 _ZNK12MathFunction17representsNonZeroERK13MathStructureb@Base 3.2.0
 _ZNK12MathFunction18representsNegativeERK13MathStructureb@Base 3.2.0
 _ZNK12MathFunction18representsPositiveERK13MathStructureb@Base 3.2.0
 _ZNK12MathFunction18representsRationalERK13MathStructureb@Base 3.2.0
 _ZNK12MathFunction19representsNonMatrixERK13MathStructure@Base 3.2.0
 _ZNK12MathFunction19representsUndefinedERK13MathStructure@Base 3.2.0
 _ZNK12MathFunction20representsNonComplexERK13MathStructureb@Base 3.2.0
 _ZNK12MathFunction21representsNonNegativeERK13MathStructureb@Base 3.2.0
 _ZNK12MathFunction21representsNonPositiveERK13MathStructureb@Base 3.2.0
 _ZNK12MathFunction27lastArgumentDefinitionIndexEv@Base 3.2.0
 _ZNK12MathFunction4argsEv@Base 3.2.0
 _ZNK12MathFunction4typeEv@Base 3.2.0
 _ZNK12MathFunction7exampleEbNSt7__cxx1112basic_stringIcSt11char_traitsIcESaIcEEE@Base 3.2.0
 _ZNK12MathFunction7maxargsEv@Base 3.2.0
 _ZNK12MathFunction7minargsEv@Base 3.2.0
 _ZNK12MathFunction7subtypeEv@Base 3.2.0
 _ZNK12MathFunction9conditionB5cxx11Ev@Base 3.2.0
 _ZNK12ModeFunction4copyEv@Base 3.2.0
 _ZNK12NumberPrefix4typeEv@Base 3.2.0
 _ZNK12NumberPrefix5valueERK6Number@Base 3.2.0
 _ZNK12NumberPrefix5valueEi@Base 3.2.0
 _ZNK12NumberPrefix5valueEv@Base 3.2.0
 _ZNK12PlotFunction4copyEv@Base 3.2.0
 _ZNK12PrintOptions12decimalpointB5cxx11Ev@Base 3.2.0
 _ZNK12PrintOptions5commaB5cxx11Ev@Base 3.2.0
 _ZNK12RandFunction14representsRealERK13MathStructureb@Base 3.2.0
 _ZNK12RandFunction17representsIntegerERK13MathStructureb@Base 3.2.0
 _ZNK12RandFunction21representsNonNegativeERK13MathStructureb@Base 3.2.0
 _ZNK12RandFunction4copyEv@Base 3.2.0
 _ZNK12RankFunction4copyEv@Base 3.2.0
 _ZNK12RootFunction13representsOddERK13MathStructureb@Base 3.2.0
 _ZNK12RootFunction14representsEvenERK13MathStructureb@Base 3.2.0
 _ZNK12RootFunction14representsRealERK13MathStructureb@Base 3.2.0
 _ZNK12RootFunction16representsNumberERK13MathStructureb@Base 3.2.0
 _ZNK12RootFunction17representsComplexERK13MathStructureb@Base 3.2.0
 _ZNK12RootFunction17representsIntegerERK13MathStructureb@Base 3.2.0
 _ZNK12RootFunction17representsNonZeroERK13MathStructureb@Base 3.2.0
 _ZNK12RootFunction18representsNegativeERK13MathStructureb@Base 3.2.0
 _ZNK12RootFunction18representsPositiveERK13MathStructureb@Base 3.2.0
 _ZNK12RootFunction18representsRationalERK13MathStructureb@Base 3.2.0
 _ZNK12RootFunction19representsUndefinedERK13MathStructure@Base 3.2.0
 _ZNK12RootFunction20representsNonComplexERK13MathStructureb@Base 3.2.0
 _ZNK12RootFunction21representsNonNegativeERK13MathStructureb@Base 3.2.0
 _ZNK12RootFunction21representsNonPositiveERK13MathStructureb@Base 3.2.0
 _ZNK12RootFunction4copyEv@Base 3.2.0
 _ZNK12RowsFunction17representsIntegerERK13MathStructureb@Base 3.2.0
 _ZNK12RowsFunction18representsPositiveERK13MathStructureb@Base 3.2.0
 _ZNK12RowsFunction4copyEv@Base 3.2.0
 _ZNK12SaveFunction4copyEv@Base 3.2.0
 _ZNK12SincFunction14representsRealERK13MathStructureb@Base 3.2.0
 _ZNK12SincFunction16representsNumberERK13MathStructureb@Base 3.2.0
 _ZNK12SincFunction20representsNonComplexERK13MathStructureb@Base 3.2.0
 _ZNK12SincFunction4copyEv@Base 3.2.0
 _ZNK12SinhFunction14representsRealERK13MathStructureb@Base 3.2.0
 _ZNK12SinhFunction16representsNumberERK13MathStructureb@Base 3.2.0
 _ZNK12SinhFunction20representsNonComplexERK13MathStructureb@Base 3.2.0
 _ZNK12SinhFunction4copyEv@Base 3.2.0
 _ZNK12SortFunction4copyEv@Base 3.2.0
 _ZNK12SqrtFunction13representsOddERK13MathStructureb@Base 3.2.0
 _ZNK12SqrtFunction14representsEvenERK13MathStructureb@Base 3.2.0
 _ZNK12SqrtFunction14representsRealERK13MathStructureb@Base 3.2.0
 _ZNK12SqrtFunction16representsNumberERK13MathStructureb@Base 3.2.0
 _ZNK12SqrtFunction17representsComplexERK13MathStructureb@Base 3.2.0
 _ZNK12SqrtFunction17representsIntegerERK13MathStructureb@Base 3.2.0
 _ZNK12SqrtFunction17representsNonZeroERK13MathStructureb@Base 3.2.0
 _ZNK12SqrtFunction18representsNegativeERK13MathStructureb@Base 3.2.0
 _ZNK12SqrtFunction18representsPositiveERK13MathStructureb@Base 3.2.0
 _ZNK12SqrtFunction18representsRationalERK13MathStructureb@Base 3.2.0
 _ZNK12SqrtFunction19representsUndefinedERK13MathStructure@Base 3.2.0
 _ZNK12SqrtFunction20representsNonComplexERK13MathStructureb@Base 3.2.0
 _ZNK12SqrtFunction21representsNonNegativeERK13MathStructureb@Base 3.2.0
 _ZNK12SqrtFunction21representsNonPositiveERK13MathStructureb@Base 3.2.0
 _ZNK12SqrtFunction4copyEv@Base 3.2.0
 _ZNK12TanhFunction14representsRealERK13MathStructureb@Base 3.2.0
 _ZNK12TanhFunction16representsNumberERK13MathStructureb@Base 3.2.0
 _ZNK12TanhFunction20representsNonComplexERK13MathStructureb@Base 3.2.0
 _ZNK12TanhFunction4copyEv@Base 3.2.0
 _ZNK12TextArgument12subprintlongB5cxx11Ev@Base 3.2.0
 _ZNK12TextArgument14suggestsQuotesEv@Base 3.2.0
 _ZNK12TextArgument4copyEv@Base 3.2.0
 _ZNK12TextArgument4typeEv@Base 3.2.0
 _ZNK12TextArgument5printB5cxx11Ev@Base 3.2.0
 _ZNK12TextArgument7subtestER13MathStructureRK17EvaluationOptions@Base 3.2.0
 _ZNK12TimeFunction4copyEv@Base 3.2.0
 _ZNK12UnitArgument12subprintlongB5cxx11Ev@Base 3.2.0
 _ZNK12UnitArgument4copyEv@Base 3.2.0
 _ZNK12UnitArgument4typeEv@Base 3.2.0
 _ZNK12UnitArgument5printB5cxx11Ev@Base 3.2.0
 _ZNK12UnitArgument7subtestER13MathStructureRK17EvaluationOptions@Base 3.2.0
 _ZNK12UserFunction14getSubfunctionB5cxx11Em@Base 3.2.0
 _ZNK12UserFunction15internalFormulaB5cxx11Ev@Base 3.2.0
 _ZNK12UserFunction17countSubfunctionsEv@Base 3.2.0
 _ZNK12UserFunction24subfunctionPrecalculatedEm@Base 3.2.0
 _ZNK12UserFunction4copyEv@Base 3.2.0
 _ZNK12UserFunction7formulaB5cxx11Ev@Base 3.2.0
 _ZNK12UserFunction7subtypeEv@Base 3.2.0
 _ZNK12WeekFunction4copyEv@Base 3.2.0
 _ZNK12YearFunction4copyEv@Base 3.2.0
 _ZNK12ZetaFunction4copyEv@Base 3.2.0
 _ZNK13AcoshFunction16representsNumberERK13MathStructureb@Base 3.2.0
 _ZNK13AcoshFunction4copyEv@Base 3.2.0
 _ZNK13AngleArgument12subprintlongB5cxx11Ev@Base 3.2.0
 _ZNK13AngleArgument4copyEv@Base 3.2.0
 _ZNK13AngleArgument4typeEv@Base 3.2.0
 _ZNK13AngleArgument5parseEP13MathStructureRKNSt7__cxx1112basic_stringIcSt11char_traitsIcESaIcEEERK12ParseOptions@Base 3.2.0
 _ZNK13AngleArgument5printB5cxx11Ev@Base 3.2.0
 _ZNK13AngleArgument7subtestER13MathStructureRK17EvaluationOptions@Base 3.2.0
 _ZNK13AsciiFunction17representsIntegerERK13MathStructureb@Base 3.2.0
 _ZNK13AsciiFunction18representsPositiveERK13MathStructureb@Base 3.2.0
 _ZNK13AsciiFunction4copyEv@Base 3.2.0
 _ZNK13AsinhFunction14representsRealERK13MathStructureb@Base 3.2.0
 _ZNK13AsinhFunction16representsNumberERK13MathStructureb@Base 3.2.0
 _ZNK13AsinhFunction20representsNonComplexERK13MathStructureb@Base 3.2.0
 _ZNK13AsinhFunction4copyEv@Base 3.2.0
 _ZNK13Atan2Function16representsNumberERK13MathStructureb@Base 3.2.0
 _ZNK13Atan2Function4copyEv@Base 3.2.0
 _ZNK13AtanhFunction4copyEv@Base 3.2.0
 _ZNK13CoeffFunction4copyEv@Base 3.2.0
 _ZNK13CompositeUnit10countUnitsEv@Base 3.2.0
 _ZNK13CompositeUnit18containsRelativeToEP4Unit@Base 3.2.0
 _ZNK13CompositeUnit21generateMathStructureEbb@Base 3.2.0
 _ZNK13CompositeUnit26hasNonlinearRelationToBaseEv@Base 3.2.0
 _ZNK13CompositeUnit28hasApproximateRelationToBaseEbb@Base 3.2.0
 _ZNK13CompositeUnit3getEmPiPP6Prefix@Base 3.2.0
 _ZNK13CompositeUnit4copyEv@Base 3.2.0
 _ZNK13CompositeUnit4findEP4Unit@Base 3.2.0
 _ZNK13CompositeUnit5printB5cxx11EbbbPFbPKcPvES2_@Base 3.2.0
 _ZNK13CompositeUnit7subtypeEv@Base 3.2.0
 _ZNK13DecimalPrefix4typeEv@Base 3.2.0
 _ZNK13DecimalPrefix5valueERK6Number@Base 3.2.0
 _ZNK13DecimalPrefix5valueEi@Base 3.2.0
 _ZNK13DecimalPrefix5valueEv@Base 3.2.0
 _ZNK13DecimalPrefix8exponentERK6Number@Base 3.2.0
 _ZNK13DecimalPrefix8exponentEi@Base 3.2.0
 _ZNK13DiracFunction13representsOddERK13MathStructureb@Base 3.2.0
 _ZNK13DiracFunction14representsEvenERK13MathStructureb@Base 3.2.0
 _ZNK13DiracFunction14representsRealERK13MathStructureb@Base 3.2.0
 _ZNK13DiracFunction16representsNumberERK13MathStructureb@Base 3.2.0
 _ZNK13DiracFunction17representsComplexERK13MathStructureb@Base 3.2.0
 _ZNK13DiracFunction17representsIntegerERK13MathStructureb@Base 3.2.0
 _ZNK13DiracFunction17representsNonZeroERK13MathStructureb@Base 3.2.0
 _ZNK13DiracFunction18representsNegativeERK13MathStructureb@Base 3.2.0
 _ZNK13DiracFunction18representsPositiveERK13MathStructureb@Base 3.2.0
 _ZNK13DiracFunction18representsRationalERK13MathStructureb@Base 3.2.0
 _ZNK13DiracFunction19representsUndefinedERK13MathStructure@Base 3.2.0
 _ZNK13DiracFunction20representsNonComplexERK13MathStructureb@Base 3.2.0
 _ZNK13DiracFunction21representsNonNegativeERK13MathStructureb@Base 3.2.0
 _ZNK13DiracFunction21representsNonPositiveERK13MathStructureb@Base 3.2.0
 _ZNK13DiracFunction4copyEv@Base 3.2.0
 _ZNK13ErrorFunction4copyEv@Base 3.2.0
 _ZNK13EulerVariable4copyEv@Base 3.2.0
 _ZNK13EulerVariable9calculateER13MathStructure@Base 3.2.0
 _ZNK13FloorFunction13representsOddERK13MathStructureb@Base 3.2.0
 _ZNK13FloorFunction14representsEvenERK13MathStructureb@Base 3.2.0
 _ZNK13FloorFunction14representsRealERK13MathStructureb@Base 3.2.0
 _ZNK13FloorFunction16representsNumberERK13MathStructureb@Base 3.2.0
 _ZNK13FloorFunction17representsComplexERK13MathStructureb@Base 3.2.0
 _ZNK13FloorFunction17representsIntegerERK13MathStructureb@Base 3.2.0
 _ZNK13FloorFunction17representsNonZeroERK13MathStructureb@Base 3.2.0
 _ZNK13FloorFunction18representsNegativeERK13MathStructureb@Base 3.2.0
 _ZNK13FloorFunction18representsPositiveERK13MathStructureb@Base 3.2.0
 _ZNK13FloorFunction18representsRationalERK13MathStructureb@Base 3.2.0
 _ZNK13FloorFunction19representsUndefinedERK13MathStructure@Base 3.2.0
 _ZNK13FloorFunction20representsNonComplexERK13MathStructureb@Base 3.2.0
 _ZNK13FloorFunction21representsNonNegativeERK13MathStructureb@Base 3.2.0
 _ZNK13FloorFunction21representsNonPositiveERK13MathStructureb@Base 3.2.0
 _ZNK13FloorFunction4copyEv@Base 3.2.0
 _ZNK13GammaFunction4copyEv@Base 3.2.0
 _ZNK13KnownVariable10expressionB5cxx11Ev@Base 3.2.0
 _ZNK13KnownVariable11uncertaintyB5cxx11EPb@Base 3.2.0
 _ZNK13KnownVariable12isExpressionEv@Base 3.2.0
 _ZNK13KnownVariable4copyEv@Base 3.2.0
 _ZNK13KnownVariable4unitB5cxx11Ev@Base 3.2.0
 _ZNK13KnownVariable7isKnownEv@Base 3.2.0
 _ZNK13KnownVariable7subtypeEv@Base 3.2.0
 _ZNK13LimitFunction4copyEv@Base 3.2.0
 _ZNK13MathStructure10find_x_varEv@Base 3.2.0
 _ZNK13MathStructure10getElementEmm@Base 3.2.0
 _ZNK13MathStructure10isAdditionEv@Base 3.2.0
 _ZNK13MathStructure10isDateTimeEv@Base 3.2.0
 _ZNK13MathStructure10isDivisionEv@Base 3.2.0
 _ZNK13MathStructure10isFunctionEv@Base 3.2.0
 _ZNK13MathStructure10isInfiniteEb@Base 3.2.0
 _ZNK13MathStructure10isInfinityEv@Base 3.2.0
 _ZNK13MathStructure10isMinusOneEv@Base 3.2.0
 _ZNK13MathStructure10isSymbolicEv@Base 3.2.0
 _ZNK13MathStructure10isUnit_expEv@Base 3.2.0
 _ZNK13MathStructure10isVariableEv@Base 3.2.0
 _ZNK13MathStructure11coefficientERKS_RK6NumberRS_@Base 3.2.0
 _ZNK13MathStructure11determinantERS_RK17EvaluationOptions@Base 3.2.0
 _ZNK13MathStructure11isBitwiseOrEv@Base 3.2.0
 _ZNK13MathStructure11isLogicalOrEv@Base 3.2.0
 _ZNK13MathStructure11isProtectedEv@Base 3.2.0
 _ZNK13MathStructure11isUndefinedEv@Base 3.2.0
 _ZNK13MathStructure11rowToVectorEmRS_@Base 3.2.0
 _ZNK13MathStructure12containsTypeE13StructureTypebbb@Base 3.2.0
 _ZNK13MathStructure12isBitwiseAndEv@Base 3.2.0
 _ZNK13MathStructure12isBitwiseNotEv@Base 3.2.0
 _ZNK13MathStructure12isBitwiseXorEv@Base 3.2.0
 _ZNK13MathStructure12isComparisonEv@Base 3.2.0
 _ZNK13MathStructure12isLogicalAndEv@Base 3.2.0
 _ZNK13MathStructure12isLogicalNotEv@Base 3.2.0
 _ZNK13MathStructure12isLogicalXorEv@Base 3.2.0
 _ZNK13MathStructure12isNumber_expEv@Base 3.2.0
 _ZNK13MathStructure12lcoefficientERKS_RS_@Base 3.2.0
 _ZNK13MathStructure12tcoefficientERKS_RS_@Base 3.2.0
 _ZNK13MathStructure13countChildrenEv@Base 3.2.0
 _ZNK13MathStructure13flattenVectorERS_@Base 3.2.0
 _ZNK13MathStructure13functionValueEv@Base 3.2.0
 _ZNK13MathStructure13inParenthesesEv@Base 3.2.0
 _ZNK13MathStructure13isApproximateEv@Base 3.2.0
 _ZNK13MathStructure13isEmptySymbolEv@Base 3.2.0
 _ZNK13MathStructure13isUnknown_expEv@Base 3.2.0
 _ZNK13MathStructure13representsOddEb@Base 3.2.0
 _ZNK13MathStructure13unit_exp_unitEv@Base 3.2.0
 _ZNK13MathStructure14columnToVectorEmRS_@Base 3.2.0
 _ZNK13MathStructure14comparisonTypeEv@Base 3.2.0
 _ZNK13MathStructure14countFunctionsEb@Base 3.2.0
 _ZNK13MathStructure14generateVectorES_RKS_RK17EvaluationOptions@Base 3.2.0
 _ZNK13MathStructure14generateVectorES_RKS_S1_S1_PS_RK17EvaluationOptions@Base 3.2.0
 _ZNK13MathStructure14generateVectorES_RKS_S1_iPS_RK17EvaluationOptions@Base 3.2.0
 _ZNK13MathStructure14matrixIsSquareEv@Base 3.2.0
 _ZNK13MathStructure14matrixToVectorERS_@Base 3.2.0
 _ZNK13MathStructure14polynomialUnitERKS_@Base 3.2.0
 _ZNK13MathStructure14representsEvenEb@Base 3.2.0
 _ZNK13MathStructure14representsRealEb@Base 3.2.0
 _ZNK13MathStructure14representsZeroEb@Base 3.2.0
 _ZNK13MathStructure15hasNegativeSignEv@Base 3.2.0
 _ZNK13MathStructure15isNumericMatrixEv@Base 3.2.0
 _ZNK13MathStructure15unit_exp_prefixEv@Base 3.2.0
 _ZNK13MathStructure16containsDivisionEv@Base 3.2.0
 _ZNK13MathStructure16containsFunctionEP12MathFunctionbbb@Base 3.2.0
 _ZNK13MathStructure16containsInfinityEbbb@Base 3.2.0
 _ZNK13MathStructure16containsIntervalEbbbib@Base 3.2.0
 _ZNK13MathStructure16containsUnknownsEv@Base 3.2.0
 _ZNK13MathStructure16countOccurrencesERKS_@Base 3.2.0
 _ZNK13MathStructure16isMultiplicationEv@Base 3.2.0
 _ZNK13MathStructure16isUnitCompatibleERKS_@Base 3.2.0
 _ZNK13MathStructure16needsParenthesisERK12PrintOptionsRK19InternalPrintStructRKS_mbb@Base 3.2.0
 _ZNK13MathStructure16representsNumberEb@Base 3.2.0
 _ZNK13MathStructure16representsScalarEv@Base 3.2.0
 _ZNK13MathStructure17getIdentityMatrixERS_@Base 3.2.0
 _ZNK13MathStructure17polynomialContentERKS_RS_RK17EvaluationOptions@Base 3.2.0
 _ZNK13MathStructure17representsBooleanEv@Base 3.2.0
 _ZNK13MathStructure17representsComplexEb@Base 3.2.0
 _ZNK13MathStructure17representsIntegerEb@Base 3.2.0
 _ZNK13MathStructure17representsNonZeroEb@Base 3.2.0
 _ZNK13MathStructure18countTotalChildrenEb@Base 3.2.0
 _ZNK13MathStructure18overallCoefficientEv@Base 3.2.0
 _ZNK13MathStructure18polynomialPrimpartERKS_RS_RK17EvaluationOptions@Base 3.2.0
 _ZNK13MathStructure18polynomialPrimpartERKS_S1_RS_RK17EvaluationOptions@Base 3.2.0
 _ZNK13MathStructure18representsFractionEb@Base 3.2.0
 _ZNK13MathStructure18representsNegativeEb@Base 3.2.0
 _ZNK13MathStructure18representsPositiveEb@Base 3.2.0
 _ZNK13MathStructure18representsRationalEb@Base 3.2.0
 _ZNK13MathStructure19isApproximatelyZeroEv@Base 3.2.0
 _ZNK13MathStructure19representsNonMatrixEv@Base 3.2.0
 _ZNK13MathStructure19representsUndefinedEbbb@Base 3.2.0
 _ZNK13MathStructure20compareApproximatelyERKS_RK17EvaluationOptions@Base 3.2.0
 _ZNK13MathStructure20isRationalPolynomialEbb@Base 3.2.0
 _ZNK13MathStructure20representsNonComplexEb@Base 3.2.0
 _ZNK13MathStructure20representsNonIntegerEb@Base 3.2.0
 _ZNK13MathStructure21containsAdditionPowerEv@Base 3.2.0
 _ZNK13MathStructure21representsNonNegativeEb@Base 3.2.0
 _ZNK13MathStructure21representsNonPositiveEb@Base 3.2.0
 _ZNK13MathStructure22containsOpaqueContentsEv@Base 3.2.0
 _ZNK13MathStructure24containsRepresentativeOfERKS_bb@Base 3.2.0
 _ZNK13MathStructure24neededMultiplicationSignERK12PrintOptionsRK19InternalPrintStructRKS_mbbbb@Base 3.2.0
 _ZNK13MathStructure27representsApproximatelyZeroEb@Base 3.2.0
 _ZNK13MathStructure28containsRepresentativeOfTypeE13StructureTypebb@Base 3.2.0
 _ZNK13MathStructure29polynomialUnitContentPrimpartERKS_RiRS_S3_RK17EvaluationOptions@Base 3.2.0
 _ZNK13MathStructure4baseEv@Base 3.2.0
 _ZNK13MathStructure4lastEv@Base 3.2.0
 _ZNK13MathStructure4rowsEv@Base 3.2.0
 _ZNK13MathStructure4sizeEv@Base 3.2.0
 _ZNK13MathStructure4typeEv@Base 3.2.0
 _ZNK13MathStructure4unitEv@Base 3.2.0
 _ZNK13MathStructure5isOneEv@Base 3.2.0
 _ZNK13MathStructure5printB5cxx11ERK12PrintOptionsRK19InternalPrintStruct@Base 3.2.0
 _ZNK13MathStructure6degreeERKS_@Base 3.2.0
 _ZNK13MathStructure6equalsENSt7__cxx1112basic_stringIcSt11char_traitsIcESaIcEEE@Base 3.2.0
 _ZNK13MathStructure6equalsEP4Unit@Base 3.2.0
 _ZNK13MathStructure6equalsEP8Variable@Base 3.2.0
 _ZNK13MathStructure6equalsERK6Numberbb@Base 3.2.0
 _ZNK13MathStructure6equalsERKS_bb@Base 3.2.0
 _ZNK13MathStructure6equalsEi@Base 3.2.0
 _ZNK13MathStructure6isUnitEv@Base 3.2.0
 _ZNK13MathStructure6isZeroEv@Base 3.2.0
 _ZNK13MathStructure6numberEv@Base 3.2.0
 _ZNK13MathStructure6prefixEv@Base 3.2.0
 _ZNK13MathStructure6symbolB5cxx11Ev@Base 3.2.0
 _ZNK13MathStructure7columnsEv@Base 3.2.0
 _ZNK13MathStructure7compareERKS_@Base 3.2.0
 _ZNK13MathStructure7getAreaEmmmmRS_@Base 3.2.0
 _ZNK13MathStructure7isPowerEv@Base 3.2.0
 _ZNK13MathStructure7ldegreeERKS_@Base 3.2.0
 _ZNK13MathStructure8cofactorEmmRS_RK17EvaluationOptions@Base 3.2.0
 _ZNK13MathStructure8containsERKS_bbbb@Base 3.2.0
 _ZNK13MathStructure8datetimeEv@Base 3.2.0
 _ZNK13MathStructure8exponentEv@Base 3.2.0
 _ZNK13MathStructure8functionEv@Base 3.2.0
 _ZNK13MathStructure8getChildEm@Base 3.2.0
 _ZNK13MathStructure8getRangeEiiRS_@Base 3.2.0
 _ZNK13MathStructure8isMatrixEv@Base 3.2.0
 _ZNK13MathStructure8isNegateEv@Base 3.2.0
 _ZNK13MathStructure8isNumberEv@Base 3.2.0
 _ZNK13MathStructure8isPluralEv@Base 3.2.0
 _ZNK13MathStructure8isVectorEv@Base 3.2.0
 _ZNK13MathStructure8refcountEv@Base 3.2.0
 _ZNK13MathStructure8variableEv@Base 3.2.0
 _ZNK13MathStructure9isAbortedEv@Base 3.2.0
 _ZNK13MathStructure9isIntegerEv@Base 3.2.0
 _ZNK13MathStructure9isInverseEv@Base 3.2.0
 _ZNK13MathStructure9isUnknownEv@Base 3.2.0
 _ZNK13MathStructure9permanentERS_RK17EvaluationOptions@Base 3.2.0
 _ZNK13MathStructure9precisionEv@Base 3.2.0
 _ZNK13MathStructureaaERKS_@Base 3.2.0
 _ZNK13MathStructuredvERKS_@Base 3.2.0
 _ZNK13MathStructureeoERKS_@Base 3.2.0
 _ZNK13MathStructureeqENSt7__cxx1112basic_stringIcSt11char_traitsIcESaIcEEE@Base 3.2.0
 _ZNK13MathStructureeqEP4Unit@Base 3.2.0
 _ZNK13MathStructureeqEP8Variable@Base 3.2.0
 _ZNK13MathStructureeqERK6Number@Base 3.2.0
 _ZNK13MathStructureeqERKS_@Base 3.2.0
 _ZNK13MathStructureeqEi@Base 3.2.0
 _ZNK13MathStructureixEm@Base 3.2.0
 _ZNK13MathStructuremiERKS_@Base 3.2.0
 _ZNK13MathStructuremlERKS_@Base 3.2.0
 _ZNK13MathStructureneERKS_@Base 3.2.0
 _ZNK13MathStructurengEv@Base 3.2.0
 _ZNK13MathStructurentEv@Base 3.2.0
 _ZNK13MathStructureooERKS_@Base 3.2.0
 _ZNK13MathStructureplERKS_@Base 3.2.0
 _ZNK13MonthFunction4copyEv@Base 3.2.0
 _ZNK13RomanFunction4copyEv@Base 3.2.0
 _ZNK13RoundFunction13representsOddERK13MathStructureb@Base 3.2.0
 _ZNK13RoundFunction14representsEvenERK13MathStructureb@Base 3.2.0
 _ZNK13RoundFunction14representsRealERK13MathStructureb@Base 3.2.0
 _ZNK13RoundFunction16representsNumberERK13MathStructureb@Base 3.2.0
 _ZNK13RoundFunction17representsComplexERK13MathStructureb@Base 3.2.0
 _ZNK13RoundFunction17representsIntegerERK13MathStructureb@Base 3.2.0
 _ZNK13RoundFunction17representsNonZeroERK13MathStructureb@Base 3.2.0
 _ZNK13RoundFunction18representsNegativeERK13MathStructureb@Base 3.2.0
 _ZNK13RoundFunction18representsPositiveERK13MathStructureb@Base 3.2.0
 _ZNK13RoundFunction18representsRationalERK13MathStructureb@Base 3.2.0
 _ZNK13RoundFunction19representsUndefinedERK13MathStructure@Base 3.2.0
 _ZNK13RoundFunction20representsNonComplexERK13MathStructureb@Base 3.2.0
 _ZNK13RoundFunction21representsNonNegativeERK13MathStructureb@Base 3.2.0
 _ZNK13RoundFunction21representsNonPositiveERK13MathStructureb@Base 3.2.0
 _ZNK13RoundFunction4copyEv@Base 3.2.0
 _ZNK13ShiftFunction4copyEv@Base 3.2.0
 _ZNK13SolveFunction4copyEv@Base 3.2.0
 _ZNK13StackFunction4copyEv@Base 3.2.0
 _ZNK13TitleFunction4copyEv@Base 3.2.0
 _ZNK13TodayVariable4copyEv@Base 3.2.0
 _ZNK13TodayVariable9calculateER13MathStructure@Base 3.2.0
 _ZNK13TotalFunction4copyEv@Base 3.2.0
 _ZNK13TruncFunction13representsOddERK13MathStructureb@Base 3.2.0
 _ZNK13TruncFunction14representsEvenERK13MathStructureb@Base 3.2.0
 _ZNK13TruncFunction14representsRealERK13MathStructureb@Base 3.2.0
 _ZNK13TruncFunction16representsNumberERK13MathStructureb@Base 3.2.0
 _ZNK13TruncFunction17representsComplexERK13MathStructureb@Base 3.2.0
 _ZNK13TruncFunction17representsIntegerERK13MathStructureb@Base 3.2.0
 _ZNK13TruncFunction17representsNonZeroERK13MathStructureb@Base 3.2.0
 _ZNK13TruncFunction18representsNegativeERK13MathStructureb@Base 3.2.0
 _ZNK13TruncFunction18representsPositiveERK13MathStructureb@Base 3.2.0
 _ZNK13TruncFunction18representsRationalERK13MathStructureb@Base 3.2.0
 _ZNK13TruncFunction19representsUndefinedERK13MathStructure@Base 3.2.0
 _ZNK13TruncFunction20representsNonComplexERK13MathStructureb@Base 3.2.0
 _ZNK13TruncFunction21representsNonNegativeERK13MathStructureb@Base 3.2.0
 _ZNK13TruncFunction21representsNonPositiveERK13MathStructureb@Base 3.2.0
 _ZNK13TruncFunction4copyEv@Base 3.2.0
 _ZNK14BitCmpFunction4copyEv@Base 3.2.0
 _ZNK14BitXorFunction4copyEv@Base 3.2.0
 _ZNK14ColumnFunction4copyEv@Base 3.2.0
 _ZNK14DSolveFunction4copyEv@Base 3.2.0
 _ZNK14DegreeFunction4copyEv@Base 3.2.0
 _ZNK14DeriveFunction4copyEv@Base 3.2.0
 _ZNK14ExportFunction4copyEv@Base 3.2.0
 _ZNK14ExpressionItem10countNamesEv@Base 3.2.0
 _ZNK14ExpressionItem10hasChangedEv@Base 3.2.0
 _ZNK14ExpressionItem11descriptionB5cxx11Ev@Base 3.2.0
 _ZNK14ExpressionItem12isRegisteredEv@Base 3.2.0
 _ZNK14ExpressionItem13getReferencerEm@Base 3.2.0
 _ZNK14ExpressionItem13isApproximateEv@Base 3.2.0
 _ZNK14ExpressionItem13preferredNameEbbbbPFbPKcPvES2_@Base 3.2.0
 _ZNK14ExpressionItem13referenceNameB5cxx11Ev@Base 3.2.0
 _ZNK14ExpressionItem18preferredInputNameEbbbbPFbPKcPvES2_@Base 3.2.0
 _ZNK14ExpressionItem20hasNameCaseSensitiveERKNSt7__cxx1112basic_stringIcSt11char_traitsIcESaIcEEE@Base 3.2.0
 _ZNK14ExpressionItem20preferredDisplayNameEbbbbPFbPKcPvES2_@Base 3.2.0
 _ZNK14ExpressionItem4nameB5cxx11EbPFbPKcPvES2_@Base 3.2.0
 _ZNK14ExpressionItem5titleB5cxx11EbbPFbPKcPvES2_@Base 3.2.0
 _ZNK14ExpressionItem7getNameEm@Base 3.2.0
 _ZNK14ExpressionItem7hasNameERKNSt7__cxx1112basic_stringIcSt11char_traitsIcESaIcEEEb@Base 3.2.0
 _ZNK14ExpressionItem7isLocalEv@Base 3.2.0
 _ZNK14ExpressionItem8categoryB5cxx11Ev@Base 3.2.0
 _ZNK14ExpressionItem8findNameEiiiPFbPKcPvES2_@Base 3.2.0
 _ZNK14ExpressionItem8isActiveEv@Base 3.2.0
 _ZNK14ExpressionItem8isHiddenEv@Base 3.2.0
 _ZNK14ExpressionItem8refcountEv@Base 3.2.0
 _ZNK14ExpressionItem9isBuiltinEv@Base 3.2.0
 _ZNK14ExpressionItem9precisionEv@Base 3.2.0
 _ZNK14ExpressionNameeqERKS_@Base 3.2.0
 _ZNK14ExpressionNameneERKS_@Base 3.2.0
 _ZNK14IGammaFunction14representsRealERK13MathStructureb@Base 3.2.0
 _ZNK14IGammaFunction16representsNumberERK13MathStructureb@Base 3.2.0
 _ZNK14IGammaFunction20representsNonComplexERK13MathStructureb@Base 3.2.0
 _ZNK14IGammaFunction4copyEv@Base 3.2.0
 _ZNK14IsRealFunction4copyEv@Base 3.2.0
 _ZNK14LCoeffFunction4copyEv@Base 3.2.0
 _ZNK14LengthFunction17representsIntegerERK13MathStructureb@Base 3.2.0
 _ZNK14LengthFunction18representsPositiveERK13MathStructureb@Base 3.2.0
 _ZNK14LengthFunction4copyEv@Base 3.2.0
 _ZNK14LimitsFunction4copyEv@Base 3.2.0
 _ZNK14MatrixArgument12subprintlongB5cxx11Ev@Base 3.2.0
 _ZNK14MatrixArgument14squareDemandedEv@Base 3.2.0
 _ZNK14MatrixArgument4copyEv@Base 3.2.0
 _ZNK14MatrixArgument4typeEv@Base 3.2.0
 _ZNK14MatrixArgument5printB5cxx11Ev@Base 3.2.0
 _ZNK14MatrixArgument7subtestER13MathStructureRK17EvaluationOptions@Base 3.2.0
 _ZNK14MatrixFunction4copyEv@Base 3.2.0
 _ZNK14NumberArgument12subprintlongB5cxx11Ev@Base 3.2.0
 _ZNK14NumberArgument14complexAllowedEv@Base 3.2.0
 _ZNK14NumberArgument14rationalNumberEv@Base 3.2.0
 _ZNK14NumberArgument16includeEqualsMaxEv@Base 3.2.0
 _ZNK14NumberArgument16includeEqualsMinEv@Base 3.2.0
 _ZNK14NumberArgument3maxEv@Base 3.2.0
 _ZNK14NumberArgument3minEv@Base 3.2.0
 _ZNK14NumberArgument4copyEv@Base 3.2.0
 _ZNK14NumberArgument4typeEv@Base 3.2.0
 _ZNK14NumberArgument5printB5cxx11Ev@Base 3.2.0
 _ZNK14NumberArgument7subtestER13MathStructureRK17EvaluationOptions@Base 3.2.0
 _ZNK14SelectFunction4copyEv@Base 3.2.0
 _ZNK14SignumFunction13representsOddERK13MathStructureb@Base 3.2.0
 _ZNK14SignumFunction14representsEvenERK13MathStructureb@Base 3.2.0
 _ZNK14SignumFunction14representsRealERK13MathStructureb@Base 3.2.0
 _ZNK14SignumFunction16representsNumberERK13MathStructureb@Base 3.2.0
 _ZNK14SignumFunction17representsComplexERK13MathStructureb@Base 3.2.0
 _ZNK14SignumFunction17representsIntegerERK13MathStructureb@Base 3.2.0
 _ZNK14SignumFunction17representsNonZeroERK13MathStructureb@Base 3.2.0
 _ZNK14SignumFunction18representsNegativeERK13MathStructureb@Base 3.2.0
 _ZNK14SignumFunction18representsPositiveERK13MathStructureb@Base 3.2.0
 _ZNK14SignumFunction18representsRationalERK13MathStructureb@Base 3.2.0
 _ZNK14SignumFunction19representsUndefinedERK13MathStructure@Base 3.2.0
 _ZNK14SignumFunction20representsNonComplexERK13MathStructureb@Base 3.2.0
 _ZNK14SignumFunction21representsNonNegativeERK13MathStructureb@Base 3.2.0
 _ZNK14SignumFunction21representsNonPositiveERK13MathStructureb@Base 3.2.0
 _ZNK14SignumFunction4copyEv@Base 3.2.0
 _ZNK14SquareFunction4copyEv@Base 3.2.0
 _ZNK14TCoeffFunction4copyEv@Base 3.2.0
 _ZNK14UptimeVariable4copyEv@Base 3.2.0
 _ZNK14UptimeVariable9calculateER13MathStructure@Base 3.2.0
 _ZNK14VectorArgument11getArgumentEm@Base 3.2.0
 _ZNK14VectorArgument12subprintlongB5cxx11Ev@Base 3.2.0
 _ZNK14VectorArgument14countArgumentsEv@Base 3.2.0
 _ZNK14VectorArgument19reoccuringArgumentsEv@Base 3.2.0
 _ZNK14VectorArgument4copyEv@Base 3.2.0
 _ZNK14VectorArgument4typeEv@Base 3.2.0
 _ZNK14VectorArgument5printB5cxx11Ev@Base 3.2.0
 _ZNK14VectorArgument7subtestER13MathStructureRK17EvaluationOptions@Base 3.2.0
 _ZNK14VectorFunction4copyEv@Base 3.2.0
 _ZNK15AddDaysFunction4copyEv@Base 3.2.0
 _ZNK15AdjointFunction4copyEv@Base 3.2.0
 _ZNK15BesseljFunction4copyEv@Base 3.2.0
 _ZNK15BesselyFunction4copyEv@Base 3.2.0
 _ZNK15BooleanArgument12subprintlongB5cxx11Ev@Base 3.2.0
 _ZNK15BooleanArgument4copyEv@Base 3.2.0
 _ZNK15BooleanArgument4typeEv@Base 3.2.0
 _ZNK15BooleanArgument5printB5cxx11Ev@Base 3.2.0
 _ZNK15BooleanArgument7subtestER13MathStructureRK17EvaluationOptions@Base 3.2.0
 _ZNK15CatalanVariable4copyEv@Base 3.2.0
 _ZNK15CatalanVariable9calculateER13MathStructure@Base 3.2.0
 _ZNK15ColumnsFunction17representsIntegerERK13MathStructureb@Base 3.2.0
 _ZNK15ColumnsFunction18representsPositiveERK13MathStructureb@Base 3.2.0
 _ZNK15ColumnsFunction4copyEv@Base 3.2.0
 _ZNK15DigammaFunction4copyEv@Base 3.2.0
 _ZNK15DynamicVariable19calculatedPrecisionEv@Base 3.2.0
 _ZNK15ElementFunction4copyEv@Base 3.2.0
 _ZNK15IntegerArgument11integerTypeEv@Base 3.2.0
 _ZNK15IntegerArgument12subprintlongB5cxx11Ev@Base 3.2.0
 _ZNK15IntegerArgument3maxEv@Base 3.2.0
 _ZNK15IntegerArgument3minEv@Base 3.2.0
 _ZNK15IntegerArgument4copyEv@Base 3.2.0
 _ZNK15IntegerArgument4typeEv@Base 3.2.0
 _ZNK15IntegerArgument5printB5cxx11Ev@Base 3.2.0
 _ZNK15IntegerArgument7subtestER13MathStructureRK17EvaluationOptions@Base 3.2.0
 _ZNK15InverseFunction4copyEv@Base 3.2.0
 _ZNK15LDegreeFunction4copyEv@Base 3.2.0
 _ZNK15MessageFunction4copyEv@Base 3.2.0
 _ZNK15ProcessFunction4copyEv@Base 3.2.0
 _ZNK15ProductFunction4copyEv@Base 3.2.0
 _ZNK15ReplaceFunction4copyEv@Base 3.2.0
 _ZNK15UnknownVariable4copyEv@Base 3.2.0
 _ZNK15UnknownVariable7isKnownEv@Base 3.2.0
 _ZNK15UnknownVariable7subtypeEv@Base 3.2.0
 _ZNK15UnknownVariable8intervalEv@Base 3.2.0
 _ZNK15WarningFunction4copyEv@Base 3.2.0
 _ZNK15WeekdayFunction4copyEv@Base 3.2.0
 _ZNK15YeardayFunction4copyEv@Base 3.2.0
 _ZNK16AddYearsFunction4copyEv@Base 3.2.0
 _ZNK16BinomialFunction4copyEv@Base 3.2.0
 _ZNK16CofactorFunction4copyEv@Base 3.2.0
 _ZNK16DateTimeFunction4copyEv@Base 3.2.0
 _ZNK16ElementsFunction17representsIntegerERK13MathStructureb@Base 3.2.0
 _ZNK16ElementsFunction18representsPositiveERK13MathStructureb@Base 3.2.0
 _ZNK16ElementsFunction4copyEv@Base 3.2.0
 _ZNK16FunctionArgument12subprintlongB5cxx11Ev@Base 3.2.0
 _ZNK16FunctionArgument4copyEv@Base 3.2.0
 _ZNK16FunctionArgument4typeEv@Base 3.2.0
 _ZNK16FunctionArgument5printB5cxx11Ev@Base 3.2.0
 _ZNK16FunctionArgument7subtestER13MathStructureRK17EvaluationOptions@Base 3.2.0
 _ZNK16FunctionFunction4copyEv@Base 3.2.0
 _ZNK16HadamardFunction4copyEv@Base 3.2.0
 _ZNK16IdentityFunction4copyEv@Base 3.2.0
 _ZNK16IntervalFunction13representsOddERK13MathStructureb@Base 3.2.0
 _ZNK16IntervalFunction14representsEvenERK13MathStructureb@Base 3.2.0
 _ZNK16IntervalFunction14representsRealERK13MathStructureb@Base 3.2.0
 _ZNK16IntervalFunction16representsNumberERK13MathStructureb@Base 3.2.0
 _ZNK16IntervalFunction17representsComplexERK13MathStructureb@Base 3.2.0
 _ZNK16IntervalFunction17representsIntegerERK13MathStructureb@Base 3.2.0
 _ZNK16IntervalFunction17representsNonZeroERK13MathStructureb@Base 3.2.0
 _ZNK16IntervalFunction18representsNegativeERK13MathStructureb@Base 3.2.0
 _ZNK16IntervalFunction18representsPositiveERK13MathStructureb@Base 3.2.0
 _ZNK16IntervalFunction18representsRationalERK13MathStructureb@Base 3.2.0
 _ZNK16IntervalFunction19representsUndefinedERK13MathStructure@Base 3.2.0
 _ZNK16IntervalFunction20representsNonComplexERK13MathStructureb@Base 3.2.0
 _ZNK16IntervalFunction21representsNonNegativeERK13MathStructureb@Base 3.2.0
 _ZNK16IntervalFunction21representsNonPositiveERK13MathStructureb@Base 3.2.0
 _ZNK16IntervalFunction4copyEv@Base 3.2.0
 _ZNK16IsNumberFunction4copyEv@Base 3.2.0
 _ZNK16LambertWFunction14representsRealERK13MathStructureb@Base 3.2.0
 _ZNK16LambertWFunction16representsNumberERK13MathStructureb@Base 3.2.0
 _ZNK16LambertWFunction17representsComplexERK13MathStructureb@Base 3.2.0
 _ZNK16LambertWFunction17representsNonZeroERK13MathStructureb@Base 3.2.0
 _ZNK16LambertWFunction20representsNonComplexERK13MathStructureb@Base 3.2.0
 _ZNK16LambertWFunction4copyEv@Base 3.2.0
 _ZNK16RegisterFunction4copyEv@Base 3.2.0
 _ZNK16SymbolicArgument12subprintlongB5cxx11Ev@Base 3.2.0
 _ZNK16SymbolicArgument4copyEv@Base 3.2.0
 _ZNK16SymbolicArgument4typeEv@Base 3.2.0
 _ZNK16SymbolicArgument5printB5cxx11Ev@Base 3.2.0
 _ZNK16SymbolicArgument7subtestER13MathStructureRK17EvaluationOptions@Base 3.2.0
 _ZNK16TomorrowVariable4copyEv@Base 3.2.0
 _ZNK16TomorrowVariable9calculateER13MathStructure@Base 3.2.0
 _ZNK16VariableArgument12subprintlongB5cxx11Ev@Base 3.2.0
 _ZNK16VariableArgument4copyEv@Base 3.2.0
 _ZNK16VariableArgument4typeEv@Base 3.2.0
 _ZNK16VariableArgument5printB5cxx11Ev@Base 3.2.0
 _ZNK16VariableArgument7subtestER13MathStructureRK17EvaluationOptions@Base 3.2.0
 _ZNK16YearFracFunction4copyEv@Base 3.2.0
 _ZNK17AddMonthsFunction4copyEv@Base 3.2.0
 _ZNK17CalculatorMessage4typeEv@Base 3.2.0
 _ZNK17CalculatorMessage5stageEv@Base 3.2.0
 _ZNK17CalculatorMessage7messageB5cxx11Ev@Base 3.2.0
 _ZNK17CalculatorMessage8categoryEv@Base 3.2.0
 _ZNK17CalculatorMessage9c_messageEv@Base 3.2.0
 _ZNK17ComponentFunction4copyEv@Base 3.2.0
 _ZNK17CustomSumFunction4copyEv@Base 3.2.0
 _ZNK17DimensionFunction17representsIntegerERK13MathStructureb@Base 3.2.0
 _ZNK17DimensionFunction18representsPositiveERK13MathStructureb@Base 3.2.0
 _ZNK17DimensionFunction4copyEv@Base 3.2.0
 _ZNK17EntrywiseFunction4copyEv@Base 3.2.0
 _ZNK17FactorialFunction13representsOddERK13MathStructureb@Base 3.2.0
 _ZNK17FactorialFunction14representsEvenERK13MathStructureb@Base 3.2.0
 _ZNK17FactorialFunction14representsRealERK13MathStructureb@Base 3.2.0
 _ZNK17FactorialFunction16representsNumberERK13MathStructureb@Base 3.2.0
 _ZNK17FactorialFunction17representsComplexERK13MathStructureb@Base 3.2.0
 _ZNK17FactorialFunction17representsIntegerERK13MathStructureb@Base 3.2.0
 _ZNK17FactorialFunction17representsNonZeroERK13MathStructureb@Base 3.2.0
 _ZNK17FactorialFunction18representsNegativeERK13MathStructureb@Base 3.2.0
 _ZNK17FactorialFunction18representsPositiveERK13MathStructureb@Base 3.2.0
 _ZNK17FactorialFunction18representsRationalERK13MathStructureb@Base 3.2.0
 _ZNK17FactorialFunction19representsUndefinedERK13MathStructure@Base 3.2.0
 _ZNK17FactorialFunction20representsNonComplexERK13MathStructureb@Base 3.2.0
 _ZNK17FactorialFunction21representsNonNegativeERK13MathStructureb@Base 3.2.0
 _ZNK17FactorialFunction21representsNonPositiveERK13MathStructureb@Base 3.2.0
 _ZNK17FactorialFunction4copyEv@Base 3.2.0
 _ZNK17HeavisideFunction13representsOddERK13MathStructureb@Base 3.2.0
 _ZNK17HeavisideFunction14representsEvenERK13MathStructureb@Base 3.2.0
 _ZNK17HeavisideFunction14representsRealERK13MathStructureb@Base 3.2.0
 _ZNK17HeavisideFunction16representsNumberERK13MathStructureb@Base 3.2.0
 _ZNK17HeavisideFunction17representsComplexERK13MathStructureb@Base 3.2.0
 _ZNK17HeavisideFunction17representsIntegerERK13MathStructureb@Base 3.2.0
 _ZNK17HeavisideFunction17representsNonZeroERK13MathStructureb@Base 3.2.0
 _ZNK17HeavisideFunction18representsNegativeERK13MathStructureb@Base 3.2.0
 _ZNK17HeavisideFunction18representsPositiveERK13MathStructureb@Base 3.2.0
 _ZNK17HeavisideFunction18representsRationalERK13MathStructureb@Base 3.2.0
 _ZNK17HeavisideFunction19representsUndefinedERK13MathStructure@Base 3.2.0
 _ZNK17HeavisideFunction20representsNonComplexERK13MathStructureb@Base 3.2.0
 _ZNK17HeavisideFunction21representsNonNegativeERK13MathStructureb@Base 3.2.0
 _ZNK17HeavisideFunction21representsNonPositiveERK13MathStructureb@Base 3.2.0
 _ZNK17HeavisideFunction4copyEv@Base 3.2.0
 _ZNK17IntegrateFunction4copyEv@Base 3.2.0
 _ZNK17IsIntegerFunction4copyEv@Base 3.2.0
 _ZNK17MagnitudeFunction4copyEv@Base 3.2.0
 _ZNK17NumeratorFunction4copyEv@Base 3.2.0
 _ZNK17PermanentFunction4copyEv@Base 3.2.0
 _ZNK17PrecisionVariable4copyEv@Base 3.2.0
 _ZNK17PrecisionVariable9calculateER13MathStructure@Base 3.2.0
 _ZNK17QalculateDateTime10isPastDateEv@Base 3.2.0
 _ZNK17QalculateDateTime11toISOStringB5cxx11Ev@Base 3.2.0
 _ZNK17QalculateDateTime12isFutureDateEv@Base 3.2.0
 _ZNK17QalculateDateTime13toLocalStringB5cxx11Ev@Base 3.2.0
 _ZNK17QalculateDateTime3dayEv@Base 3.2.0
 _ZNK17QalculateDateTime4hourEv@Base 3.2.0
 _ZNK17QalculateDateTime4weekEb@Base 3.2.0
 _ZNK17QalculateDateTime4yearEv@Base 3.2.0
 _ZNK17QalculateDateTime5monthEv@Base 3.2.0
 _ZNK17QalculateDateTime5printB5cxx11ERK12PrintOptions@Base 3.2.0
 _ZNK17QalculateDateTime6daysToERKS_ibb@Base 3.2.0
 _ZNK17QalculateDateTime6minuteEv@Base 3.2.0
 _ZNK17QalculateDateTime6secondEv@Base 3.2.0
 _ZNK17QalculateDateTime7weekdayEv@Base 3.2.0
 _ZNK17QalculateDateTime7yeardayEv@Base 3.2.0
 _ZNK17QalculateDateTime7yearsToERKS_ibb@Base 3.2.0
 _ZNK17QalculateDateTime9secondsToERKS_bb@Base 3.2.0
 _ZNK17QalculateDateTime9timeIsSetEv@Base 3.2.0
 _ZNK17QalculateDateTime9timestampEb@Base 3.2.0
 _ZNK17QalculateDateTimeeqERKS_@Base 3.2.0
 _ZNK17QalculateDateTimegeERKS_@Base 3.2.0
 _ZNK17QalculateDateTimegtERKS_@Base 3.2.0
 _ZNK17QalculateDateTimeleERKS_@Base 3.2.0
 _ZNK17QalculateDateTimeltERKS_@Base 3.2.0
 _ZNK17QalculateDateTimeneERKS_@Base 3.2.0
 _ZNK17TimeValueFunction4copyEv@Base 3.2.0
 _ZNK17TimestampFunction4copyEv@Base 3.2.0
 _ZNK17TransposeFunction4copyEv@Base 3.2.0
 _ZNK17YesterdayVariable4copyEv@Base 3.2.0
 _ZNK17YesterdayVariable9calculateER13MathStructure@Base 3.2.0
 _ZNK18DataObjectArgument12subprintlongB5cxx11Ev@Base 3.2.0
 _ZNK18DataObjectArgument4copyEv@Base 3.2.0
 _ZNK18DataObjectArgument4typeEv@Base 3.2.0
 _ZNK18DataObjectArgument5printB5cxx11Ev@Base 3.2.0
 _ZNK18DataObjectArgument7dataSetEv@Base 3.2.0
 _ZNK18DataObjectArgument7subtestER13MathStructureRK17EvaluationOptions@Base 3.2.0
 _ZNK18IsRationalFunction4copyEv@Base 3.2.0
 _ZNK18LunarPhaseFunction4copyEv@Base 3.2.0
 _ZNK18PercentileFunction4copyEv@Base 3.2.0
 _ZNK18StripUnitsFunction4copyEv@Base 3.2.0
 _ZNK19AliasUnit_Composite14prefixExponentEv@Base 3.2.0
 _ZNK19AliasUnit_Composite22convertToFirstBaseUnitER13MathStructureS1_@Base 3.2.0
 _ZNK19AliasUnit_Composite24convertFromFirstBaseUnitER13MathStructureS1_@Base 3.2.0
 _ZNK19AliasUnit_Composite4copyEv@Base 3.2.0
 _ZNK19AliasUnit_Composite5printB5cxx11EbbbPFbPKcPvES2_@Base 3.2.0
 _ZNK19AliasUnit_Composite6prefixEv@Base 3.2.0
 _ZNK19ConcatenateFunction4copyEv@Base 3.2.0
 _ZNK19DenominatorFunction4copyEv@Base 3.2.0
 _ZNK19DeterminantFunction4copyEv@Base 3.2.0
 _ZNK19UncertaintyFunction4copyEv@Base 3.2.0
 _ZNK20DataPropertyArgument12subprintlongB5cxx11Ev@Base 3.2.0
 _ZNK20DataPropertyArgument4copyEv@Base 3.2.0
 _ZNK20DataPropertyArgument4typeEv@Base 3.2.0
 _ZNK20DataPropertyArgument5printB5cxx11Ev@Base 3.2.0
 _ZNK20DataPropertyArgument7dataSetEv@Base 3.2.0
 _ZNK20DataPropertyArgument7subtestER13MathStructureRK17EvaluationOptions@Base 3.2.0
 _ZNK20MergeVectorsFunction4copyEv@Base 3.2.0
 _ZNK21CircularShiftFunction4copyEv@Base 3.2.0
 _ZNK21ProcessMatrixFunction4copyEv@Base 3.2.0
 _ZNK21SolveMultipleFunction4copyEv@Base 3.2.0
 _ZNK22ExpressionItemArgument12subprintlongB5cxx11Ev@Base 3.2.0
 _ZNK22ExpressionItemArgument4copyEv@Base 3.2.0
 _ZNK22ExpressionItemArgument4typeEv@Base 3.2.0
 _ZNK22ExpressionItemArgument5printB5cxx11Ev@Base 3.2.0
 _ZNK22ExpressionItemArgument7subtestER13MathStructureRK17EvaluationOptions@Base 3.2.0
 _ZNK22GenerateVectorFunction4copyEv@Base 3.2.0
 _ZNK22MatrixToVectorFunction4copyEv@Base 3.2.0
 _ZNK22MultiFactorialFunction13representsOddERK13MathStructureb@Base 3.2.0
 _ZNK22MultiFactorialFunction14representsEvenERK13MathStructureb@Base 3.2.0
 _ZNK22MultiFactorialFunction14representsRealERK13MathStructureb@Base 3.2.0
 _ZNK22MultiFactorialFunction16representsNumberERK13MathStructureb@Base 3.2.0
 _ZNK22MultiFactorialFunction17representsComplexERK13MathStructureb@Base 3.2.0
 _ZNK22MultiFactorialFunction17representsIntegerERK13MathStructureb@Base 3.2.0
 _ZNK22MultiFactorialFunction17representsNonZeroERK13MathStructureb@Base 3.2.0
 _ZNK22MultiFactorialFunction18representsNegativeERK13MathStructureb@Base 3.2.0
 _ZNK22MultiFactorialFunction18representsPositiveERK13MathStructureb@Base 3.2.0
 _ZNK22MultiFactorialFunction18representsRationalERK13MathStructureb@Base 3.2.0
 _ZNK22MultiFactorialFunction19representsUndefinedERK13MathStructure@Base 3.2.0
 _ZNK22MultiFactorialFunction20representsNonComplexERK13MathStructureb@Base 3.2.0
 _ZNK22MultiFactorialFunction21representsNonNegativeERK13MathStructureb@Base 3.2.0
 _ZNK22MultiFactorialFunction21representsNonPositiveERK13MathStructureb@Base 3.2.0
 _ZNK22MultiFactorialFunction4copyEv@Base 3.2.0
 _ZNK22NextLunarPhaseFunction4copyEv@Base 3.2.0
 _ZNK22PolynomialUnitFunction4copyEv@Base 3.2.0
 _ZNK22RepresentsRealFunction4copyEv@Base 3.2.0
 _ZNK23DoubleFactorialFunction13representsOddERK13MathStructureb@Base 3.2.0
 _ZNK23DoubleFactorialFunction14representsEvenERK13MathStructureb@Base 3.2.0
 _ZNK23DoubleFactorialFunction14representsRealERK13MathStructureb@Base 3.2.0
 _ZNK23DoubleFactorialFunction16representsNumberERK13MathStructureb@Base 3.2.0
 _ZNK23DoubleFactorialFunction17representsComplexERK13MathStructureb@Base 3.2.0
 _ZNK23DoubleFactorialFunction17representsIntegerERK13MathStructureb@Base 3.2.0
 _ZNK23DoubleFactorialFunction17representsNonZeroERK13MathStructureb@Base 3.2.0
 _ZNK23DoubleFactorialFunction18representsNegativeERK13MathStructureb@Base 3.2.0
 _ZNK23DoubleFactorialFunction18representsPositiveERK13MathStructureb@Base 3.2.0
 _ZNK23DoubleFactorialFunction18representsRationalERK13MathStructureb@Base 3.2.0
 _ZNK23DoubleFactorialFunction19representsUndefinedERK13MathStructure@Base 3.2.0
 _ZNK23DoubleFactorialFunction20representsNonComplexERK13MathStructureb@Base 3.2.0
 _ZNK23DoubleFactorialFunction21representsNonNegativeERK13MathStructureb@Base 3.2.0
 _ZNK23DoubleFactorialFunction21representsNonPositiveERK13MathStructureb@Base 3.2.0
 _ZNK23DoubleFactorialFunction4copyEv@Base 3.2.0
 _ZNK23TimestampToDateFunction4copyEv@Base 3.2.0
 _ZNK24RepresentsNumberFunction4copyEv@Base 3.2.0
 _ZNK25PolynomialContentFunction4copyEv@Base 3.2.0
 _ZNK25RepresentsIntegerFunction4copyEv@Base 3.2.0
 _ZNK26PolynomialPrimpartFunction4copyEv@Base 3.2.0
 _ZNK26RepresentsRationalFunction4copyEv@Base 3.2.0
 _ZNK33RadiansToDefaultAngleUnitFunction4copyEv@Base 3.2.0
 _ZNK4Unit10isCurrencyEv@Base 3.2.0
 _ZNK4Unit10isParentOfEPS_@Base 3.2.0
 _ZNK4Unit12abbreviationB5cxx11EbbPFbPKcPvES2_@Base 3.2.0
 _ZNK4Unit12baseExponentEi@Base 3.2.0
 _ZNK4Unit17convertToBaseUnitER13MathStructure@Base 3.2.0
 _ZNK4Unit17convertToBaseUnitER13MathStructureS1_@Base 3.2.0
 _ZNK4Unit17convertToBaseUnitEv@Base 3.2.0
 _ZNK4Unit18containsRelativeToEPS_@Base 3.2.0
 _ZNK4Unit18isUsedByOtherUnitsEv@Base 3.2.0
 _ZNK4Unit19convertFromBaseUnitER13MathStructure@Base 3.2.0
 _ZNK4Unit19convertFromBaseUnitER13MathStructureS1_@Base 3.2.0
 _ZNK4Unit19convertFromBaseUnitEv@Base 3.2.0
 _ZNK4Unit22hasNonlinearRelationToEPS_@Base 3.2.0
 _ZNK4Unit24hasApproximateRelationToEPS_bb@Base 3.2.0
 _ZNK4Unit24useWithPrefixesByDefaultEv@Base 3.2.0
 _ZNK4Unit26hasNonlinearRelationToBaseEv@Base 3.2.0
 _ZNK4Unit28hasApproximateRelationToBaseEbb@Base 3.2.0
 _ZNK4Unit4copyEv@Base 3.2.0
 _ZNK4Unit4typeEv@Base 3.2.0
 _ZNK4Unit5printB5cxx11EbbbPFbPKcPvES2_@Base 3.2.0
 _ZNK4Unit6pluralB5cxx11EbbPFbPKcPvES2_@Base 3.2.0
 _ZNK4Unit6systemB5cxx11Ev@Base 3.2.0
 _ZNK4Unit7convertEPS_Pb@Base 3.2.0
 _ZNK4Unit7convertEPS_R13MathStructure@Base 3.2.0
 _ZNK4Unit7convertEPS_R13MathStructureS2_@Base 3.2.0
 _ZNK4Unit7subtypeEv@Base 3.2.0
 _ZNK4Unit8baseUnitEv@Base 3.2.0
 _ZNK4Unit8isSIUnitEv@Base 3.2.0
 _ZNK4Unit8singularB5cxx11EbbPFbPKcPvES2_@Base 3.2.0
 _ZNK4Unit9countriesB5cxx11Ev@Base 3.2.0
 _ZNK4Unit9isChildOfEPS_@Base 3.2.0
 _ZNK5eqstrclEPKcS1_@Base 3.2.0
 _ZNK6Number10equalsZeroEv@Base 3.2.0
 _ZNK6Number10floatValueEv@Base 3.2.0
 _ZNK6Number10getBooleanEv@Base 3.2.0
 _ZNK6Number10isFractionEv@Base 3.2.0
 _ZNK6Number10isInfiniteEb@Base 3.2.0
 _ZNK6Number10isIntervalEb@Base 3.2.0
 _ZNK6Number10isLessThanERKS_@Base 3.2.0
 _ZNK6Number10isLessThanEl@Base 3.2.0
 _ZNK6Number10isMinusOneEv@Base 3.2.0
 _ZNK6Number10isNegativeEv@Base 3.2.0
 _ZNK6Number10isPositiveEv@Base 3.2.0
 _ZNK6Number10isRationalEv@Base 3.2.0
 _ZNK6Number10llintValueEv@Base 3.2.0
 _ZNK6Number10testErrorsEi@Base 3.2.0
 _ZNK6Number10ulintValueEPb@Base 3.2.0
 _ZNK6Number11denominatorEv@Base 3.2.0
 _ZNK6Number11hasRealPartEv@Base 3.2.0
 _ZNK6Number11isUndefinedEv@Base 3.2.0
 _ZNK6Number11uncertaintyEv@Base 3.2.0
 _ZNK6Number12internalTypeEv@Base 3.2.0
 _ZNK6Number13imaginaryPartEv@Base 3.2.0
 _ZNK6Number13integerLengthEv@Base 3.2.0
 _ZNK6Number13isApproximateEv@Base 3.2.0
 _ZNK6Number13isGreaterThanERKS_@Base 3.2.0
 _ZNK6Number13isGreaterThanEl@Base 3.2.0
 _ZNK6Number13isNonNegativeEv@Base 3.2.0
 _ZNK6Number13isNonPositiveEv@Base 3.2.0
 _ZNK6Number13lowerEndPointEb@Base 3.2.0
 _ZNK6Number13splitIntervalEjRSt6vectorIS_SaIS_EE@Base 3.2.0
 _ZNK6Number13upperEndPointEb@Base 3.2.0
 _ZNK6Number14isPlusInfinityEb@Base 3.2.0
 _ZNK6Number14numeratorIsOneEv@Base 3.2.0
 _ZNK6Number14printNumeratorB5cxx11Eib11BaseDisplayb@Base 3.2.0
 _ZNK6Number15compareAbsoluteERKS_b@Base 3.2.0
 _ZNK6Number15hasNegativeSignEv@Base 3.2.0
 _ZNK6Number15hasPositiveSignEv@Base 3.2.0
 _ZNK6Number15isFloatingPointEv@Base 3.2.0
 _ZNK6Number15isMinusInfinityEb@Base 3.2.0
 _ZNK6Number15isPerfectSquareEv@Base 3.2.0
 _ZNK6Number15numeratorEqualsEl@Base 3.2.0
 _ZNK6Number15numeratorIsEvenEv@Base 3.2.0
 _ZNK6Number16compareRealPartsERKS_@Base 3.2.0
 _ZNK6Number16complexNumeratorEv@Base 3.2.0
 _ZNK6Number16denominatorIsTwoEv@Base 3.2.0
 _ZNK6Number16hasImaginaryPartEv@Base 3.2.0
 _ZNK6Number16includesInfinityEb@Base 3.2.0
 _ZNK6Number16internalRationalEv@Base 3.2.0
 _ZNK6Number16printDenominatorB5cxx11Eib11BaseDisplayb@Base 3.2.0
 _ZNK6Number17denominatorEqualsEl@Base 3.2.0
 _ZNK6Number17denominatorIsEvenEv@Base 3.2.0
 _ZNK6Number17denominatorIsLessERKS_@Base 3.2.0
 _ZNK6Number17getCentralIntegerERS_PbPSt6vectorIS_SaIS_EE@Base 3.2.0
 _ZNK6Number17internalImaginaryEv@Base 3.2.0
 _ZNK6Number17realPartIsNonZeroEv@Base 3.2.0
 _ZNK6Number18complexDenominatorEv@Base 3.2.0
 _ZNK6Number18denominatorIsEqualERKS_@Base 3.2.0
 _ZNK6Number18internalLowerFloatEv@Base 3.2.0
 _ZNK6Number18internalUpperFloatEv@Base 3.2.0
 _ZNK6Number18isIntegerDivisibleERKS_@Base 3.2.0
 _ZNK6Number18realPartIsNegativeEv@Base 3.2.0
 _ZNK6Number18realPartIsPositiveEv@Base 3.2.0
 _ZNK6Number18realPartIsRationalEv@Base 3.2.0
 _ZNK6Number19equalsApproximatelyERKS_i@Base 3.2.0
 _ZNK6Number19isLessThanOrEqualToERKS_@Base 3.2.0
 _ZNK6Number19isLessThanOrEqualToEl@Base 3.2.0
 _ZNK6Number19numeratorIsLessThanEl@Base 3.2.0
 _ZNK6Number19numeratorIsMinusOneEv@Base 3.2.0
 _ZNK6Number19relativeUncertaintyEv@Base 3.2.0
 _ZNK6Number20compareApproximatelyERKS_i@Base 3.2.0
 _ZNK6Number20denominatorIsGreaterERKS_@Base 3.2.0
 _ZNK6Number20includesPlusInfinityEv@Base 3.2.0
 _ZNK6Number21compareImaginaryPartsERKS_@Base 3.2.0
 _ZNK6Number21denominatorIsLessThanEl@Base 3.2.0
 _ZNK6Number21includesMinusInfinityEv@Base 3.2.0
 _ZNK6Number21realPartIsNonNegativeEv@Base 3.2.0
 _ZNK6Number22imaginaryPartIsNonZeroEv@Base 3.2.0
 _ZNK6Number22isGreaterThanOrEqualToERKS_@Base 3.2.0
 _ZNK6Number22isGreaterThanOrEqualToEl@Base 3.2.0
 _ZNK6Number22numeratorIsGreaterThanEl@Base 3.2.0
 _ZNK6Number23imaginaryPartIsIntervalEv@Base 3.2.0
 _ZNK6Number23imaginaryPartIsNegativeEv@Base 3.2.0
 _ZNK6Number23imaginaryPartIsPositiveEv@Base 3.2.0
 _ZNK6Number23printImaginaryNumeratorB5cxx11Eib11BaseDisplayb@Base 3.2.0
 _ZNK6Number24denominatorIsGreaterThanEl@Base 3.2.0
 _ZNK6Number25printImaginaryDenominatorB5cxx11Eib11BaseDisplayb@Base 3.2.0
 _ZNK6Number26imaginaryPartIsNonNegativeEv@Base 3.2.0
 _ZNK6Number26imaginaryPartIsNonPositiveEv@Base 3.2.0
 _ZNK6Number3isIEv@Base 3.2.0
 _ZNK6Number5isOddEv@Base 3.2.0
 _ZNK6Number5isOneEv@Base 3.2.0
 _ZNK6Number5isTwoEv@Base 3.2.0
 _ZNK6Number5printB5cxx11ERK12PrintOptionsRK19InternalPrintStruct@Base 3.2.0
 _ZNK6Number6equalsERKS_bb@Base 3.2.0
 _ZNK6Number6equalsEl@Base 3.2.0
 _ZNK6Number6isEvenEv@Base 3.2.0
 _ZNK6Number6isRealEv@Base 3.2.0
 _ZNK6Number6isZeroEv@Base 3.2.0
 _ZNK6Number7compareERKS_b@Base 3.2.0
 _ZNK6Number7compareEl@Base 3.2.0
 _ZNK6Number7integerEv@Base 3.2.0
 _ZNK6Number8intValueEPb@Base 3.2.0
 _ZNK6Number8isMinusIEv@Base 3.2.0
 _ZNK6Number8realPartEv@Base 3.2.0
 _ZNK6Number9isComplexEv@Base 3.2.0
 _ZNK6Number9isIntegerE11IntegerType@Base 3.2.0
 _ZNK6Number9isNonZeroEv@Base 3.2.0
 _ZNK6Number9lintValueEPb@Base 3.2.0
 _ZNK6Number9numeratorEv@Base 3.2.0
 _ZNK6Number9precisionEi@Base 3.2.0
 _ZNK6Number9uintValueEPb@Base 3.2.0
 _ZNK6NumberaaERKS_@Base 3.2.0
 _ZNK6NumberdvERKS_@Base 3.2.0
 _ZNK6NumberdvEl@Base 3.2.0
 _ZNK6NumbereoERKS_@Base 3.2.0
 _ZNK6NumbereoEl@Base 3.2.0
 _ZNK6NumbereqERKS_@Base 3.2.0
 _ZNK6NumbereqEl@Base 3.2.0
 _ZNK6NumbergeERKS_@Base 3.2.0
 _ZNK6NumbergeEl@Base 3.2.0
 _ZNK6NumbergtERKS_@Base 3.2.0
 _ZNK6NumbergtEl@Base 3.2.0
 _ZNK6NumberleERKS_@Base 3.2.0
 _ZNK6NumberleEl@Base 3.2.0
 _ZNK6NumberltERKS_@Base 3.2.0
 _ZNK6NumberltEl@Base 3.2.0
 _ZNK6NumbermiERKS_@Base 3.2.0
 _ZNK6NumbermiEl@Base 3.2.0
 _ZNK6NumbermlERKS_@Base 3.2.0
 _ZNK6NumbermlEl@Base 3.2.0
 _ZNK6NumberneERKS_@Base 3.2.0
 _ZNK6NumberneEl@Base 3.2.0
 _ZNK6NumberngEv@Base 3.2.0
 _ZNK6NumberntEv@Base 3.2.0
 _ZNK6NumberooERKS_@Base 3.2.0
 _ZNK6NumberplERKS_@Base 3.2.0
 _ZNK6NumberplEl@Base 3.2.0
 _ZNK6Prefix11unicodeNameB5cxx11Eb@Base 3.2.0
 _ZNK6Prefix4nameB5cxx11EbbPFbPKcPvES2_@Base 3.2.0
 _ZNK6Prefix8longNameB5cxx11Ebb@Base 3.2.0
 _ZNK6Prefix9shortNameB5cxx11Ebb@Base 3.2.0
 _ZNK7DataSet13objectsLoadedEv@Base 3.2.0
 _ZNK7DataSet15defaultDataFileB5cxx11Ev@Base 3.2.0
 _ZNK7DataSet15defaultPropertyB5cxx11Ev@Base 3.2.0
 _ZNK7DataSet4copyEv@Base 3.2.0
 _ZNK7DataSet7subtypeEv@Base 3.2.0
 _ZNK7DataSet9copyrightB5cxx11Ev@Base 3.2.0
 _ZNK8Argument12subprintlongB5cxx11Ev@Base 3.2.0
 _ZNK8Argument13handlesVectorEv@Base 3.2.0
 _ZNK8Argument13matrixAllowedEv@Base 3.2.0
 _ZNK8Argument13zeroForbiddenEv@Base 3.2.0
 _ZNK8Argument14isLastArgumentEv@Base 3.2.0
 _ZNK8Argument14suggestsQuotesEv@Base 3.2.0
 _ZNK8Argument18getCustomConditionB5cxx11Ev@Base 3.2.0
 _ZNK8Argument18rationalPolynomialEv@Base 3.2.0
 _ZNK8Argument4copyEv@Base 3.2.0
 _ZNK8Argument4nameB5cxx11Ev@Base 3.2.0
 _ZNK8Argument4testER13MathStructureiP12MathFunctionRK17EvaluationOptions@Base 3.2.0
 _ZNK8Argument4typeEv@Base 3.2.0
 _ZNK8Argument5parseEP13MathStructureRKNSt7__cxx1112basic_stringIcSt11char_traitsIcESaIcEEERK12ParseOptions@Base 3.2.0
 _ZNK8Argument5parseERKNSt7__cxx1112basic_stringIcSt11char_traitsIcESaIcEEERK12ParseOptions@Base 3.2.0
 _ZNK8Argument5printB5cxx11Ev@Base 3.2.0
 _ZNK8Argument5testsEv@Base 3.2.0
 _ZNK8Argument6alertsEv@Base 3.2.0
 _ZNK8Argument7subtestER13MathStructureRK17EvaluationOptions@Base 3.2.0
 _ZNK8Argument9printlongB5cxx11Ev@Base 3.2.0
 _ZNK8Variable4typeEv@Base 3.2.0
 _ZNK8Variable7subtypeEv@Base 3.2.0
 _ZNK9AliasUnit10expressionB5cxx11Ev@Base 3.2.0
 _ZNK9AliasUnit10isParentOfEP4Unit@Base 3.2.0
 _ZNK9AliasUnit11mixWithBaseEv@Base 3.2.0
 _ZNK9AliasUnit11uncertaintyB5cxx11EPb@Base 3.2.0
 _ZNK9AliasUnit12baseExponentEi@Base 3.2.0
 _ZNK9AliasUnit13firstBaseUnitEv@Base 3.2.0
 _ZNK9AliasUnit17convertToBaseUnitER13MathStructure@Base 3.2.0
 _ZNK9AliasUnit17convertToBaseUnitER13MathStructureS1_@Base 3.2.0
 _ZNK9AliasUnit17convertToBaseUnitEv@Base 3.2.0
 _ZNK9AliasUnit17firstBaseExponentEv@Base 3.2.0
 _ZNK9AliasUnit17inverseExpressionB5cxx11Ev@Base 3.2.0
 _ZNK9AliasUnit18containsRelativeToEP4Unit@Base 3.2.0
 _ZNK9AliasUnit18mixWithBaseMinimumEv@Base 3.2.0
 _ZNK9AliasUnit19convertFromBaseUnitER13MathStructure@Base 3.2.0
 _ZNK9AliasUnit19convertFromBaseUnitER13MathStructureS1_@Base 3.2.0
 _ZNK9AliasUnit19convertFromBaseUnitEv@Base 3.2.0
 _ZNK9AliasUnit22convertToFirstBaseUnitER13MathStructureS1_@Base 3.2.0
 _ZNK9AliasUnit22hasNonlinearExpressionEv@Base 3.2.0
 _ZNK9AliasUnit22hasNonlinearRelationToEP4Unit@Base 3.2.0
 _ZNK9AliasUnit24convertFromFirstBaseUnitER13MathStructureS1_@Base 3.2.0
 _ZNK9AliasUnit24hasApproximateExpressionEbb@Base 3.2.0
 _ZNK9AliasUnit24hasApproximateRelationToEP4Unitbb@Base 3.2.0
 _ZNK9AliasUnit26hasNonlinearRelationToBaseEv@Base 3.2.0
 _ZNK9AliasUnit28hasApproximateRelationToBaseEbb@Base 3.2.0
 _ZNK9AliasUnit4copyEv@Base 3.2.0
 _ZNK9AliasUnit7subtypeEv@Base 3.2.0
 _ZNK9AliasUnit8baseUnitEv@Base 3.2.0
 _ZNK9AliasUnit9isChildOfEP4Unit@Base 3.2.0
 _ZNK9EVariable4copyEv@Base 3.2.0
 _ZNK9EVariable9calculateER13MathStructure@Base 3.2.0
 _ZNKSt5ctypeIcE8do_widenEc@Base 3.2.0
 _ZNSt10_HashtableImSt4pairIKmP13MathStructureESaIS4_ENSt8__detail10_Select1stESt8equal_toImESt4hashImENS6_18_Mod_range_hashingENS6_20_Default_ranged_hashENS6_20_Prime_rehash_policyENS6_17_Hashtable_traitsILb0ELb0ELb1EEEE21_M_insert_unique_nodeEmmPNS6_10_Hash_nodeIS4_Lb0EEEm@Base 3.2.0
 _ZNSt10_HashtableImSt4pairIKmP13MathStructureESaIS4_ENSt8__detail10_Select1stESt8equal_toImESt4hashImENS6_18_Mod_range_hashingENS6_20_Default_ranged_hashENS6_20_Prime_rehash_policyENS6_17_Hashtable_traitsILb0ELb0ELb1EEEE8_M_eraseESt17integral_constantIbLb1EERS1_@Base 3.2.0
 _ZNSt10_HashtableImSt4pairIKmP13MathStructureESaIS4_ENSt8__detail10_Select1stESt8equal_toImESt4hashImENS6_18_Mod_range_hashingENS6_20_Default_ranged_hashENS6_20_Prime_rehash_policyENS6_17_Hashtable_traitsILb0ELb0ELb1EEEE9_M_rehashEmRS1_@Base 3.2.0
 _ZNSt10_HashtableImSt4pairIKmP13MathStructureESaIS4_ENSt8__detail10_Select1stESt8equal_toImESt4hashImENS6_18_Mod_range_hashingENS6_20_Default_ranged_hashENS6_20_Prime_rehash_policyENS6_17_Hashtable_traitsILb0ELb0ELb1EEEED1Ev@Base 3.2.0
 _ZNSt10_HashtableImSt4pairIKmP13MathStructureESaIS4_ENSt8__detail10_Select1stESt8equal_toImESt4hashImENS6_18_Mod_range_hashingENS6_20_Default_ranged_hashENS6_20_Prime_rehash_policyENS6_17_Hashtable_traitsILb0ELb0ELb1EEEED2Ev@Base 3.2.0
 _ZNSt10_HashtableImSt4pairIKmP8ArgumentESaIS4_ENSt8__detail10_Select1stESt8equal_toImESt4hashImENS6_18_Mod_range_hashingENS6_20_Default_ranged_hashENS6_20_Prime_rehash_policyENS6_17_Hashtable_traitsILb0ELb0ELb1EEEE21_M_insert_unique_nodeEmmPNS6_10_Hash_nodeIS4_Lb0EEEm@Base 3.2.0
 _ZNSt10_HashtableImSt4pairIKmP8ArgumentESaIS4_ENSt8__detail10_Select1stESt8equal_toImESt4hashImENS6_18_Mod_range_hashingENS6_20_Default_ranged_hashENS6_20_Prime_rehash_policyENS6_17_Hashtable_traitsILb0ELb0ELb1EEEE5clearEv@Base 3.2.0
 _ZNSt10_HashtableImSt4pairIKmbESaIS2_ENSt8__detail10_Select1stESt8equal_toImESt4hashImENS4_18_Mod_range_hashingENS4_20_Default_ranged_hashENS4_20_Prime_rehash_policyENS4_17_Hashtable_traitsILb0ELb0ELb1EEEE21_M_insert_unique_nodeEmmPNS4_10_Hash_nodeIS2_Lb0EEEm@Base 3.2.0
 _ZNSt10_HashtableImSt4pairIKmbESaIS2_ENSt8__detail10_Select1stESt8equal_toImESt4hashImENS4_18_Mod_range_hashingENS4_20_Default_ranged_hashENS4_20_Prime_rehash_policyENS4_17_Hashtable_traitsILb0ELb0ELb1EEEE8_M_eraseESt17integral_constantIbLb1EERS1_@Base 3.2.0
 _ZNSt10_HashtableImSt4pairIKmbESaIS2_ENSt8__detail10_Select1stESt8equal_toImESt4hashImENS4_18_Mod_range_hashingENS4_20_Default_ranged_hashENS4_20_Prime_rehash_policyENS4_17_Hashtable_traitsILb0ELb0ELb1EEEE8_M_eraseEmPNS4_15_Hash_node_baseEPNS4_10_Hash_nodeIS2_Lb0EEE@Base 3.2.0
 _ZNSt10_HashtableImSt4pairIKmbESaIS2_ENSt8__detail10_Select1stESt8equal_toImESt4hashImENS4_18_Mod_range_hashingENS4_20_Default_ranged_hashENS4_20_Prime_rehash_policyENS4_17_Hashtable_traitsILb0ELb0ELb1EEEE9_M_rehashEmRS1_@Base 3.2.0
 _ZNSt10_HashtableImSt4pairIKmbESaIS2_ENSt8__detail10_Select1stESt8equal_toImESt4hashImENS4_18_Mod_range_hashingENS4_20_Default_ranged_hashENS4_20_Prime_rehash_policyENS4_17_Hashtable_traitsILb0ELb0ELb1EEEED1Ev@Base 3.2.0
 _ZNSt10_HashtableImSt4pairIKmbESaIS2_ENSt8__detail10_Select1stESt8equal_toImESt4hashImENS4_18_Mod_range_hashingENS4_20_Default_ranged_hashENS4_20_Prime_rehash_policyENS4_17_Hashtable_traitsILb0ELb0ELb1EEEED2Ev@Base 3.2.0
 _ZNSt10_HashtableImSt4pairIKmmESaIS2_ENSt8__detail10_Select1stESt8equal_toImESt4hashImENS4_18_Mod_range_hashingENS4_20_Default_ranged_hashENS4_20_Prime_rehash_policyENS4_17_Hashtable_traitsILb0ELb0ELb1EEEE21_M_insert_unique_nodeEmmPNS4_10_Hash_nodeIS2_Lb0EEEm@Base 3.2.0
 _ZNSt10_HashtableImSt4pairIKmmESaIS2_ENSt8__detail10_Select1stESt8equal_toImESt4hashImENS4_18_Mod_range_hashingENS4_20_Default_ranged_hashENS4_20_Prime_rehash_policyENS4_17_Hashtable_traitsILb0ELb0ELb1EEEED1Ev@Base 3.2.0
 _ZNSt10_HashtableImSt4pairIKmmESaIS2_ENSt8__detail10_Select1stESt8equal_toImESt4hashImENS4_18_Mod_range_hashingENS4_20_Default_ranged_hashENS4_20_Prime_rehash_policyENS4_17_Hashtable_traitsILb0ELb0ELb1EEEED2Ev@Base 3.2.0
 _ZNSt11_Deque_baseIP8_xmlNodeSaIS1_EE17_M_initialize_mapEm@Base 3.2.0
 _ZNSt11_Deque_baseIP8_xmlNodeSaIS1_EED1Ev@Base 3.2.0
 _ZNSt11_Deque_baseIP8_xmlNodeSaIS1_EED2Ev@Base 3.2.0
 _ZNSt13_Bvector_baseISaIbEE13_M_deallocateEv@Base 3.2.0
 _ZNSt20__uninitialized_copyILb0EE13__uninit_copyIPKSt5queueIP8_xmlNodeSt5dequeIS4_SaIS4_EEEPS8_EET0_T_SD_SC_@Base 3.2.0
 _ZNSt3_V28__rotateIN9__gnu_cxx17__normal_iteratorIPcNSt7__cxx1112basic_stringIcSt11char_traitsIcESaIcEEEEEEET_SB_SB_SB_St26random_access_iterator_tag@Base 3.2.0
 _ZNSt3_V28__rotateISt16reverse_iteratorIN9__gnu_cxx17__normal_iteratorIPcNSt7__cxx1112basic_stringIcSt11char_traitsIcESaIcEEEEEEEET_SD_SD_SD_St26random_access_iterator_tag@Base 3.2.0
 _ZNSt4pairIKSt6vectorImSaImEE13MathStructureED1Ev@Base 3.2.0
 _ZNSt4pairIKSt6vectorImSaImEE13MathStructureED2Ev@Base 3.2.0
 _ZNSt5dequeIP8_xmlNodeSaIS1_EE16_M_push_back_auxIJRKS1_EEEvDpOT_@Base 3.2.0
 _ZNSt6vectorI13MathStructureSaIS0_EE17_M_realloc_insertIJRKS0_EEEvN9__gnu_cxx17__normal_iteratorIPS0_S2_EEDpOT_@Base 3.2.0
 _ZNSt6vectorI13MathStructureSaIS0_EE17_M_realloc_insertIJS0_EEEvN9__gnu_cxx17__normal_iteratorIPS0_S2_EEDpOT_@Base 3.2.0
 _ZNSt6vectorI13MathStructureSaIS0_EE8_M_eraseEN9__gnu_cxx17__normal_iteratorIPS0_S2_EE@Base 3.2.0
 _ZNSt6vectorI13MathStructureSaIS0_EED1Ev@Base 3.2.0
 _ZNSt6vectorI13MathStructureSaIS0_EED2Ev@Base 3.2.0
 _ZNSt6vectorI14ExpressionNameSaIS0_EE13_M_insert_auxIS0_EEvN9__gnu_cxx17__normal_iteratorIPS0_S2_EEOT_@Base 3.2.0
 _ZNSt6vectorI14ExpressionNameSaIS0_EE17_M_default_appendEm@Base 3.2.0
 _ZNSt6vectorI14ExpressionNameSaIS0_EE17_M_realloc_insertIJRKS0_EEEvN9__gnu_cxx17__normal_iteratorIPS0_S2_EEDpOT_@Base 3.2.0
 _ZNSt6vectorI14ExpressionNameSaIS0_EE17_M_realloc_insertIJS0_EEEvN9__gnu_cxx17__normal_iteratorIPS0_S2_EEDpOT_@Base 3.2.0
 _ZNSt6vectorI14ExpressionNameSaIS0_EE8_M_eraseEN9__gnu_cxx17__normal_iteratorIPS0_S2_EE@Base 3.2.0
 _ZNSt6vectorI14node_tree_itemSaIS0_EE17_M_default_appendEm@Base 3.2.0
 _ZNSt6vectorI17CalculatorMessageSaIS0_EE12emplace_backIJS0_EEEvDpOT_@Base 3.2.0
 _ZNSt6vectorI17CalculatorMessageSaIS0_EE17_M_realloc_insertIJRKS0_EEEvN9__gnu_cxx17__normal_iteratorIPS0_S2_EEDpOT_@Base 3.2.0
 _ZNSt6vectorI17CalculatorMessageSaIS0_EE17_M_realloc_insertIJS0_EEEvN9__gnu_cxx17__normal_iteratorIPS0_S2_EEDpOT_@Base 3.2.0
 _ZNSt6vectorI17CalculatorMessageSaIS0_EE8_M_eraseEN9__gnu_cxx17__normal_iteratorIPS0_S2_EE@Base 3.2.0
 _ZNSt6vectorI17CalculatorMessageSaIS0_EED1Ev@Base 3.2.0
 _ZNSt6vectorI17CalculatorMessageSaIS0_EED2Ev@Base 3.2.0
 _ZNSt6vectorI17CalculatorMessageSaIS0_EEaSERKS2_@Base 3.2.0
 _ZNSt6vectorI6NumberSaIS0_EE12emplace_backIJS0_EEEvDpOT_@Base 3.2.0
 _ZNSt6vectorI6NumberSaIS0_EE14_M_fill_insertEN9__gnu_cxx17__normal_iteratorIPS0_S2_EEmRKS0_@Base 3.2.0
 _ZNSt6vectorI6NumberSaIS0_EE17_M_default_appendEm@Base 3.2.0
 _ZNSt6vectorI6NumberSaIS0_EE17_M_realloc_insertIJRKS0_EEEvN9__gnu_cxx17__normal_iteratorIPS0_S2_EEDpOT_@Base 3.2.0
 _ZNSt6vectorI6NumberSaIS0_EE17_M_realloc_insertIJS0_EEEvN9__gnu_cxx17__normal_iteratorIPS0_S2_EEDpOT_@Base 3.2.0
 _ZNSt6vectorI6NumberSaIS0_EE6resizeEmRKS0_@Base 3.2.0
 _ZNSt6vectorI6NumberSaIS0_EE9push_backERKS0_@Base 3.2.0
 _ZNSt6vectorI6NumberSaIS0_EED1Ev@Base 3.2.0
 _ZNSt6vectorI6NumberSaIS0_EED2Ev@Base 3.2.0
 _ZNSt6vectorI8sym_descSaIS0_EE17_M_realloc_insertIJRKS0_EEEvN9__gnu_cxx17__normal_iteratorIPS0_S2_EEDpOT_@Base 3.2.0
 _ZNSt6vectorI8sym_descSaIS0_EED1Ev@Base 3.2.0
 _ZNSt6vectorI8sym_descSaIS0_EED2Ev@Base 3.2.0
 _ZNSt6vectorINSt7__cxx1112basic_stringIcSt11char_traitsIcESaIcEEESaIS5_EE12emplace_backIJS5_EEEvDpOT_@Base 3.2.0
 _ZNSt6vectorINSt7__cxx1112basic_stringIcSt11char_traitsIcESaIcEEESaIS5_EE17_M_default_appendEm@Base 3.2.0
 _ZNSt6vectorINSt7__cxx1112basic_stringIcSt11char_traitsIcESaIcEEESaIS5_EE17_M_realloc_insertIJRKS5_EEEvN9__gnu_cxx17__normal_iteratorIPS5_S7_EEDpOT_@Base 3.2.0
 _ZNSt6vectorINSt7__cxx1112basic_stringIcSt11char_traitsIcESaIcEEESaIS5_EE17_M_realloc_insertIJS5_EEEvN9__gnu_cxx17__normal_iteratorIPS5_S7_EEDpOT_@Base 3.2.0
 _ZNSt6vectorINSt7__cxx1112basic_stringIcSt11char_traitsIcESaIcEEESaIS5_EE6insertEN9__gnu_cxx17__normal_iteratorIPKS5_S7_EERSA_@Base 3.2.0
 _ZNSt6vectorINSt7__cxx1112basic_stringIcSt11char_traitsIcESaIcEEESaIS5_EE8_M_eraseEN9__gnu_cxx17__normal_iteratorIPS5_S7_EE@Base 3.2.0
 _ZNSt6vectorINSt7__cxx1112basic_stringIcSt11char_traitsIcESaIcEEESaIS5_EE9push_backERKS5_@Base 3.2.0
 _ZNSt6vectorINSt7__cxx1112basic_stringIcSt11char_traitsIcESaIcEEESaIS5_EED1Ev@Base 3.2.0
 _ZNSt6vectorINSt7__cxx1112basic_stringIcSt11char_traitsIcESaIcEEESaIS5_EED2Ev@Base 3.2.0
 _ZNSt6vectorIP10DataObjectSaIS1_EE17_M_realloc_insertIJRKS1_EEEvN9__gnu_cxx17__normal_iteratorIPS1_S3_EEDpOT_@Base 3.2.0
 _ZNSt6vectorIP10DataObjectSaIS1_EE8_M_eraseEN9__gnu_cxx17__normal_iteratorIPS1_S3_EE@Base 3.2.0
 _ZNSt6vectorIP12BinaryPrefixSaIS1_EE17_M_realloc_insertIJS1_EEEvN9__gnu_cxx17__normal_iteratorIPS1_S3_EEDpOT_@Base 3.2.0
 _ZNSt6vectorIP12DataPropertySaIS1_EE17_M_realloc_insertIJRKS1_EEEvN9__gnu_cxx17__normal_iteratorIPS1_S3_EEDpOT_@Base 3.2.0
 _ZNSt6vectorIP12DataPropertySaIS1_EE8_M_eraseEN9__gnu_cxx17__normal_iteratorIPS1_S3_EE@Base 3.2.0
 _ZNSt6vectorIP12MathFunctionSaIS1_EE17_M_realloc_insertIJRKS1_EEEvN9__gnu_cxx17__normal_iteratorIPS1_S3_EEDpOT_@Base 3.2.0
 _ZNSt6vectorIP12MathFunctionSaIS1_EE17_M_realloc_insertIJS1_EEEvN9__gnu_cxx17__normal_iteratorIPS1_S3_EEDpOT_@Base 3.2.0
 _ZNSt6vectorIP12MathFunctionSaIS1_EE8_M_eraseEN9__gnu_cxx17__normal_iteratorIPS1_S3_EE@Base 3.2.0
 _ZNSt6vectorIP13CompositeUnitSaIS1_EE17_M_realloc_insertIJRKS1_EEEvN9__gnu_cxx17__normal_iteratorIPS1_S3_EEDpOT_@Base 3.2.0
 _ZNSt6vectorIP13DecimalPrefixSaIS1_EE17_M_realloc_insertIJS1_EEEvN9__gnu_cxx17__normal_iteratorIPS1_S3_EEDpOT_@Base 3.2.0
 _ZNSt6vectorIP13KnownVariableSaIS1_EE17_M_realloc_insertIJRKS1_EEEvN9__gnu_cxx17__normal_iteratorIPS1_S3_EEDpOT_@Base 3.2.0
 _ZNSt6vectorIP13KnownVariableSaIS1_EE8_M_eraseEN9__gnu_cxx17__normal_iteratorIPS1_S3_EE@Base 3.2.0
 _ZNSt6vectorIP13MathStructureSaIS1_EE12emplace_backIJS1_EEEvDpOT_@Base 3.2.0
 _ZNSt6vectorIP13MathStructureSaIS1_EE17_M_realloc_insertIJRKS1_EEEvN9__gnu_cxx17__normal_iteratorIPS1_S3_EEDpOT_@Base 3.2.0
 _ZNSt6vectorIP13MathStructureSaIS1_EE17_M_realloc_insertIJS1_EEEvN9__gnu_cxx17__normal_iteratorIPS1_S3_EEDpOT_@Base 3.2.0
 _ZNSt6vectorIP13MathStructureSaIS1_EE6insertEN9__gnu_cxx17__normal_iteratorIPKS1_S3_EERS6_@Base 3.2.0
 _ZNSt6vectorIP13MathStructureSaIS1_EE8_M_eraseEN9__gnu_cxx17__normal_iteratorIPS1_S3_EE@Base 3.2.0
 _ZNSt6vectorIP13MathStructureSaIS1_EE9push_backERKS1_@Base 3.2.0
 _ZNSt6vectorIP14ExpressionItemSaIS1_EE17_M_realloc_insertIJRKS1_EEEvN9__gnu_cxx17__normal_iteratorIPS1_S3_EEDpOT_@Base 3.2.0
 _ZNSt6vectorIP15UnknownVariableSaIS1_EE17_M_realloc_insertIJRKS1_EEEvN9__gnu_cxx17__normal_iteratorIPS1_S3_EEDpOT_@Base 3.2.0
 _ZNSt6vectorIP18PlotDataParametersSaIS1_EE17_M_realloc_insertIJRKS1_EEEvN9__gnu_cxx17__normal_iteratorIPS1_S3_EEDpOT_@Base 3.2.0
 _ZNSt6vectorIP19AliasUnit_CompositeSaIS1_EE12emplace_backIJS1_EEEvDpOT_@Base 3.2.0
 _ZNSt6vectorIP19AliasUnit_CompositeSaIS1_EE13_M_insert_auxIS1_EEvN9__gnu_cxx17__normal_iteratorIPS1_S3_EEOT_@Base 3.2.0
 _ZNSt6vectorIP19AliasUnit_CompositeSaIS1_EE17_M_realloc_insertIJRKS1_EEEvN9__gnu_cxx17__normal_iteratorIPS1_S3_EEDpOT_@Base 3.2.0
 _ZNSt6vectorIP19AliasUnit_CompositeSaIS1_EE17_M_realloc_insertIJS1_EEEvN9__gnu_cxx17__normal_iteratorIPS1_S3_EEDpOT_@Base 3.2.0
 _ZNSt6vectorIP19AliasUnit_CompositeSaIS1_EE6insertEN9__gnu_cxx17__normal_iteratorIPKS1_S3_EERS6_@Base 3.2.0
 _ZNSt6vectorIP19AliasUnit_CompositeSaIS1_EE8_M_eraseEN9__gnu_cxx17__normal_iteratorIPS1_S3_EE@Base 3.2.0
 _ZNSt6vectorIP4UnitSaIS1_EE12emplace_backIJS1_EEEvDpOT_@Base 3.2.0
 _ZNSt6vectorIP4UnitSaIS1_EE17_M_realloc_insertIJRKS1_EEEvN9__gnu_cxx17__normal_iteratorIPS1_S3_EEDpOT_@Base 3.2.0
 _ZNSt6vectorIP4UnitSaIS1_EE17_M_realloc_insertIJS1_EEEvN9__gnu_cxx17__normal_iteratorIPS1_S3_EEDpOT_@Base 3.2.0
 _ZNSt6vectorIP4UnitSaIS1_EE8_M_eraseEN9__gnu_cxx17__normal_iteratorIPS1_S3_EE@Base 3.2.0
 _ZNSt6vectorIP6PrefixSaIS1_EE17_M_realloc_insertIJRKS1_EEEvN9__gnu_cxx17__normal_iteratorIPS1_S3_EEDpOT_@Base 3.2.0
 _ZNSt6vectorIP7DataSetSaIS1_EE17_M_realloc_insertIJRKS1_EEEvN9__gnu_cxx17__normal_iteratorIPS1_S3_EEDpOT_@Base 3.2.0
 _ZNSt6vectorIP8ArgumentSaIS1_EE12emplace_backIJS1_EEEvDpOT_@Base 3.2.0
 _ZNSt6vectorIP8ArgumentSaIS1_EE17_M_realloc_insertIJRKS1_EEEvN9__gnu_cxx17__normal_iteratorIPS1_S3_EEDpOT_@Base 3.2.0
 _ZNSt6vectorIP8ArgumentSaIS1_EE17_M_realloc_insertIJS1_EEEvN9__gnu_cxx17__normal_iteratorIPS1_S3_EEDpOT_@Base 3.2.0
 _ZNSt6vectorIP8ArgumentSaIS1_EE8_M_eraseEN9__gnu_cxx17__normal_iteratorIPS1_S3_EE@Base 3.2.0
 _ZNSt6vectorIP8VariableSaIS1_EE17_M_realloc_insertIJRKS1_EEEvN9__gnu_cxx17__normal_iteratorIPS1_S3_EEDpOT_@Base 3.2.0
 _ZNSt6vectorIP8VariableSaIS1_EE17_M_realloc_insertIJS1_EEEvN9__gnu_cxx17__normal_iteratorIPS1_S3_EEDpOT_@Base 3.2.0
 _ZNSt6vectorIP8VariableSaIS1_EE8_M_eraseEN9__gnu_cxx17__normal_iteratorIPS1_S3_EE@Base 3.2.0
 _ZNSt6vectorIP8_xmlNodeSaIS1_EE17_M_realloc_insertIJRKS1_EEEvN9__gnu_cxx17__normal_iteratorIPS1_S3_EEDpOT_@Base 3.2.0
 _ZNSt6vectorIP8_xmlNodeSaIS1_EE9push_backERKS1_@Base 3.2.0
 _ZNSt6vectorIP9AliasUnitSaIS1_EE12emplace_backIJS1_EEEvDpOT_@Base 3.2.0
 _ZNSt6vectorIP9AliasUnitSaIS1_EE17_M_realloc_insertIJS1_EEEvN9__gnu_cxx17__normal_iteratorIPS1_S3_EEDpOT_@Base 3.2.0
 _ZNSt6vectorIP9AliasUnitSaIS1_EE8_M_eraseEN9__gnu_cxx17__normal_iteratorIPS1_S3_EE@Base 3.2.0
 _ZNSt6vectorIPA1_12__mpz_structSaIS2_EE17_M_realloc_insertIJRKS2_EEEvN9__gnu_cxx17__normal_iteratorIPS2_S4_EEDpOT_@Base 3.2.0
 _ZNSt6vectorIPK13MathStructureSaIS2_EE12emplace_backIJS2_EEEvDpOT_@Base 3.2.0
 _ZNSt6vectorIPK13MathStructureSaIS2_EE17_M_realloc_insertIJS2_EEEvN9__gnu_cxx17__normal_iteratorIPS2_S4_EEDpOT_@Base 3.2.0
 _ZNSt6vectorIPvSaIS0_EE12emplace_backIJS0_EEEvDpOT_@Base 3.2.0
 _ZNSt6vectorIPvSaIS0_EE14_M_insert_rvalEN9__gnu_cxx17__normal_iteratorIPKS0_S2_EEOS0_@Base 3.2.0
 _ZNSt6vectorIPvSaIS0_EE17_M_realloc_insertIJS0_EEEvN9__gnu_cxx17__normal_iteratorIPS0_S2_EEDpOT_@Base 3.2.0
 _ZNSt6vectorIPvSaIS0_EE8_M_eraseEN9__gnu_cxx17__normal_iteratorIPS0_S2_EE@Base 3.2.0
 _ZNSt6vectorIS_I17CalculatorMessageSaIS0_EESaIS2_EE17_M_realloc_insertIJRKS2_EEEvN9__gnu_cxx17__normal_iteratorIPS2_S4_EEDpOT_@Base 3.2.0
 _ZNSt6vectorIS_I17CalculatorMessageSaIS0_EESaIS2_EED1Ev@Base 3.2.0
 _ZNSt6vectorIS_I17CalculatorMessageSaIS0_EESaIS2_EED2Ev@Base 3.2.0
 _ZNSt6vectorISt4pairImmESaIS1_EE17_M_realloc_insertIJS1_EEEvN9__gnu_cxx17__normal_iteratorIPS1_S3_EEDpOT_@Base 3.2.0
 _ZNSt6vectorISt5queueIP8_xmlNodeSt5dequeIS2_SaIS2_EEESaIS6_EE17_M_default_appendEm@Base 3.2.0
 _ZNSt6vectorIbSaIbEE13_M_insert_auxESt13_Bit_iteratorb@Base 3.2.0
 _ZNSt6vectorIbSaIbEE14_M_fill_insertESt13_Bit_iteratormb@Base 3.2.0
 _ZNSt6vectorIbSaIbEE8_M_eraseESt13_Bit_iterator@Base 3.2.0
 _ZNSt6vectorIcSaIcEE12emplace_backIJcEEEvDpOT_@Base 3.2.0
 _ZNSt6vectorIcSaIcEE14_M_insert_rvalEN9__gnu_cxx17__normal_iteratorIPKcS1_EEOc@Base 3.2.0
 _ZNSt6vectorIcSaIcEE17_M_realloc_insertIJcEEEvN9__gnu_cxx17__normal_iteratorIPcS1_EEDpOT_@Base 3.2.0
 _ZNSt6vectorIcSaIcEE8_M_eraseEN9__gnu_cxx17__normal_iteratorIPcS1_EE@Base 3.2.0
 _ZNSt6vectorIiSaIiEE12emplace_backIJiEEEvDpOT_@Base 3.2.0
 _ZNSt6vectorIiSaIiEE13_M_insert_auxIiEEvN9__gnu_cxx17__normal_iteratorIPiS1_EEOT_@Base 3.2.0
 _ZNSt6vectorIiSaIiEE14_M_fill_insertEN9__gnu_cxx17__normal_iteratorIPiS1_EEmRKi@Base 3.2.0
 _ZNSt6vectorIiSaIiEE14_M_insert_rvalEN9__gnu_cxx17__normal_iteratorIPKiS1_EEOi@Base 3.2.0
 _ZNSt6vectorIiSaIiEE17_M_realloc_insertIJRKiEEEvN9__gnu_cxx17__normal_iteratorIPiS1_EEDpOT_@Base 3.2.0
 _ZNSt6vectorIiSaIiEE17_M_realloc_insertIJiEEEvN9__gnu_cxx17__normal_iteratorIPiS1_EEDpOT_@Base 3.2.0
 _ZNSt6vectorIiSaIiEE8_M_eraseEN9__gnu_cxx17__normal_iteratorIPiS1_EE@Base 3.2.0
 _ZNSt6vectorIiSaIiEE9push_backERKi@Base 3.2.0
 _ZNSt6vectorIlSaIlEE12emplace_backIJlEEEvDpOT_@Base 3.2.0
 _ZNSt6vectorIlSaIlEE14_M_insert_rvalEN9__gnu_cxx17__normal_iteratorIPKlS1_EEOl@Base 3.2.0
 _ZNSt6vectorIlSaIlEE17_M_realloc_insertIJlEEEvN9__gnu_cxx17__normal_iteratorIPlS1_EEDpOT_@Base 3.2.0
 _ZNSt6vectorIlSaIlEE8_M_eraseEN9__gnu_cxx17__normal_iteratorIPlS1_EE@Base 3.2.0
 _ZNSt6vectorImSaImEE12emplace_backIJmEEEvDpOT_@Base 3.2.0
 _ZNSt6vectorImSaImEE13_M_insert_auxImEEvN9__gnu_cxx17__normal_iteratorIPmS1_EEOT_@Base 3.2.0
 _ZNSt6vectorImSaImEE14_M_fill_insertEN9__gnu_cxx17__normal_iteratorIPmS1_EEmRKm@Base 3.2.0
 _ZNSt6vectorImSaImEE14_M_insert_rvalEN9__gnu_cxx17__normal_iteratorIPKmS1_EEOm@Base 3.2.0
 _ZNSt6vectorImSaImEE17_M_default_appendEm@Base 3.2.0
 _ZNSt6vectorImSaImEE17_M_realloc_insertIJRKmEEEvN9__gnu_cxx17__normal_iteratorIPmS1_EEDpOT_@Base 3.2.0
 _ZNSt6vectorImSaImEE17_M_realloc_insertIJmEEEvN9__gnu_cxx17__normal_iteratorIPmS1_EEDpOT_@Base 3.2.0
 _ZNSt6vectorImSaImEE6insertEN9__gnu_cxx17__normal_iteratorIPKmS1_EERS4_@Base 3.2.0
 _ZNSt6vectorImSaImEE7reserveEm@Base 3.2.0
 _ZNSt6vectorImSaImEE8_M_eraseEN9__gnu_cxx17__normal_iteratorIPmS1_EE@Base 3.2.0
 _ZNSt6vectorImSaImEE8_M_eraseEN9__gnu_cxx17__normal_iteratorIPmS1_EES5_@Base 3.2.0
 _ZNSt6vectorImSaImEE9push_backERKm@Base 3.2.0
 _ZNSt6vectorImSaImEEaSERKS1_@Base 3.2.0
 _ZNSt7__cxx1110_List_baseINS_12basic_stringIcSt11char_traitsIcESaIcEEESaIS5_EE8_M_clearEv@Base 3.2.0
 _ZNSt7__cxx1112basic_stringIcSt11char_traitsIcESaIcEE12_M_constructIPKcEEvT_S8_St20forward_iterator_tag@Base 3.2.0
 _ZNSt7__cxx1112basic_stringIcSt11char_traitsIcESaIcEE12_M_constructIPcEEvT_S7_St20forward_iterator_tag@Base 3.2.0
 _ZNSt7__cxx1115basic_stringbufIcSt11char_traitsIcESaIcEED0Ev@Base 3.2.0
 _ZNSt7__cxx1115basic_stringbufIcSt11char_traitsIcESaIcEED1Ev@Base 3.2.0
 _ZNSt7__cxx1115basic_stringbufIcSt11char_traitsIcESaIcEED2Ev@Base 3.2.0
 _ZNSt7__cxx114listINS_12basic_stringIcSt11char_traitsIcESaIcEEESaIS5_EE4sortEv@Base 3.2.0
 _ZNSt7__cxx114listINS_12basic_stringIcSt11char_traitsIcESaIcEEESaIS5_EE5mergeEOS7_@Base 3.2.0
 _ZNSt8_Rb_treeISt6vectorImSaImEESt4pairIKS2_13MathStructureESt10_Select1stIS6_ESt4lessIS2_ESaIS6_EE10_M_insert_IS6_NSC_11_Alloc_nodeEEESt17_Rb_tree_iteratorIS6_EPSt18_Rb_tree_node_baseSI_OT_RT0_@Base 3.2.0
 _ZNSt8_Rb_treeISt6vectorImSaImEESt4pairIKS2_13MathStructureESt10_Select1stIS6_ESt4lessIS2_ESaIS6_EE16_M_insert_uniqueIS6_EES3_ISt17_Rb_tree_iteratorIS6_EbEOT_@Base 3.2.0
 _ZNSt8_Rb_treeISt6vectorImSaImEESt4pairIKS2_13MathStructureESt10_Select1stIS6_ESt4lessIS2_ESaIS6_EE22_M_emplace_hint_uniqueIJRKSt21piecewise_construct_tSt5tupleIJRS4_EESH_IJEEEEESt17_Rb_tree_iteratorIS6_ESt23_Rb_tree_const_iteratorIS6_EDpOT_@Base 3.2.0
 _ZNSt8_Rb_treeISt6vectorImSaImEESt4pairIKS2_13MathStructureESt10_Select1stIS6_ESt4lessIS2_ESaIS6_EE24_M_get_insert_unique_posERS4_@Base 3.2.0
 _ZNSt8_Rb_treeISt6vectorImSaImEESt4pairIKS2_13MathStructureESt10_Select1stIS6_ESt4lessIS2_ESaIS6_EE29_M_get_insert_hint_unique_posESt23_Rb_tree_const_iteratorIS6_ERS4_@Base 3.2.0
 _ZNSt8_Rb_treeISt6vectorImSaImEESt4pairIKS2_13MathStructureESt10_Select1stIS6_ESt4lessIS2_ESaIS6_EE7_M_copyINSC_20_Reuse_or_alloc_nodeEEEPSt13_Rb_tree_nodeIS6_EPKSG_PSt18_Rb_tree_node_baseRT_@Base 3.2.0
 _ZNSt8_Rb_treeISt6vectorImSaImEESt4pairIKS2_13MathStructureESt10_Select1stIS6_ESt4lessIS2_ESaIS6_EE8_M_eraseEPSt13_Rb_tree_nodeIS6_E@Base 3.2.0
 _ZNSt8__detail9_Map_baseImSt4pairIKmP13MathStructureESaIS5_ENS_10_Select1stESt8equal_toImESt4hashImENS_18_Mod_range_hashingENS_20_Default_ranged_hashENS_20_Prime_rehash_policyENS_17_Hashtable_traitsILb0ELb0ELb1EEELb1EEixEOm@Base 3.2.0
 _ZNSt8__detail9_Map_baseImSt4pairIKmP13MathStructureESaIS5_ENS_10_Select1stESt8equal_toImESt4hashImENS_18_Mod_range_hashingENS_20_Default_ranged_hashENS_20_Prime_rehash_policyENS_17_Hashtable_traitsILb0ELb0ELb1EEELb1EEixERS2_@Base 3.2.0
 _ZNSt8__detail9_Map_baseImSt4pairIKmP8ArgumentESaIS5_ENS_10_Select1stESt8equal_toImESt4hashImENS_18_Mod_range_hashingENS_20_Default_ranged_hashENS_20_Prime_rehash_policyENS_17_Hashtable_traitsILb0ELb0ELb1EEELb1EEixERS2_@Base 3.2.0
 _ZNSt8__detail9_Map_baseImSt4pairIKmbESaIS3_ENS_10_Select1stESt8equal_toImESt4hashImENS_18_Mod_range_hashingENS_20_Default_ranged_hashENS_20_Prime_rehash_policyENS_17_Hashtable_traitsILb0ELb0ELb1EEELb1EEixERS2_@Base 3.2.0
 _ZNSt8__detail9_Map_baseImSt4pairIKmmESaIS3_ENS_10_Select1stESt8equal_toImESt4hashImENS_18_Mod_range_hashingENS_20_Default_ranged_hashENS_20_Prime_rehash_policyENS_17_Hashtable_traitsILb0ELb0ELb1EEELb1EEixERS2_@Base 3.2.0
 _ZSt10__pop_heapIN9__gnu_cxx17__normal_iteratorIP8sym_descSt6vectorIS2_SaIS2_EEEENS0_5__ops15_Iter_less_iterEEvT_SA_SA_RT0_@Base 3.2.0
 _ZSt11__make_heapIN9__gnu_cxx17__normal_iteratorIP8sym_descSt6vectorIS2_SaIS2_EEEENS0_5__ops15_Iter_less_iterEEvT_SA_RT0_@Base 3.2.0
 _ZSt13__adjust_heapIN9__gnu_cxx17__normal_iteratorIP8sym_descSt6vectorIS2_SaIS2_EEEElS2_NS0_5__ops15_Iter_less_iterEEvT_T0_SB_T1_T2_@Base 3.2.0
 _ZSt13__adjust_heapIN9__gnu_cxx17__normal_iteratorIPSt4pairImmESt6vectorIS3_SaIS3_EEEElS3_NS0_5__ops15_Iter_less_iterEEvT_T0_SC_T1_T2_@Base 3.2.0
 _ZSt16__insertion_sortIN9__gnu_cxx17__normal_iteratorIP8sym_descSt6vectorIS2_SaIS2_EEEENS0_5__ops15_Iter_less_iterEEvT_SA_T0_@Base 3.2.0
 _ZSt16__insertion_sortIN9__gnu_cxx17__normal_iteratorIPSt4pairImmESt6vectorIS3_SaIS3_EEEENS0_5__ops15_Iter_less_iterEEvT_SB_T0_@Base 3.2.0
 _ZSt22__move_median_to_firstIN9__gnu_cxx17__normal_iteratorIPSt4pairImmESt6vectorIS3_SaIS3_EEEENS0_5__ops15_Iter_less_iterEEvT_SB_SB_SB_T0_@Base 3.2.0
 _ZSt25__unguarded_linear_insertIN9__gnu_cxx17__normal_iteratorIP8sym_descSt6vectorIS2_SaIS2_EEEENS0_5__ops14_Val_less_iterEEvT_T0_@Base 3.2.0
 _ZSt4swapI8sym_descENSt9enable_ifIXsrSt6__and_IJSt6__not_ISt15__is_tuple_likeIT_EESt21is_move_constructibleIS5_ESt18is_move_assignableIS5_EEE5valueEvE4typeERS5_SF_@Base 3.2.0
 _ZSteqIcEN9__gnu_cxx11__enable_ifIXsrSt9__is_charIT_E7__valueEbE6__typeERKNSt7__cxx1112basic_stringIS3_St11char_traitsIS3_ESaIS3_EEESE_@Base 3.2.0
 _ZStplIcSt11char_traitsIcESaIcEENSt7__cxx1112basic_stringIT_T0_T1_EEOS8_PKS5_@Base 3.2.0
 _ZStplIcSt11char_traitsIcESaIcEENSt7__cxx1112basic_stringIT_T0_T1_EEOS8_S9_@Base 3.2.0
 _ZStplIcSt11char_traitsIcESaIcEENSt7__cxx1112basic_stringIT_T0_T1_EEPKS5_RKS8_@Base 3.2.0
 _ZTI10Calculator@Base 3.2.0
 _ZTI10CiFunction@Base 3.2.0
 _ZTI10EiFunction@Base 3.2.0
 _ZTI10IFFunction@Base 3.2.0
 _ZTI10ImFunction@Base 3.2.0
 _ZTI10LiFunction@Base 3.2.0
 _ZTI10PiVariable@Base 3.2.0
 _ZTI10ReFunction@Base 3.2.0
 _ZTI10SiFunction@Base 3.2.0
 _ZTI10liFunction@Base 3.2.0
 _ZTI11AbsFunction@Base 3.2.0
 _ZTI11ArgFunction@Base 3.2.0
 _ZTI11ArgumentSet@Base 3.2.0
 _ZTI11BinFunction@Base 3.2.0
 _ZTI11ChiFunction@Base 3.2.0
 _ZTI11CosFunction@Base 3.2.0
 _ZTI11DayFunction@Base 3.2.0
 _ZTI11ErfFunction@Base 3.2.0
 _ZTI11ExpFunction@Base 3.2.0
 _ZTI11ForFunction@Base 3.2.0
 _ZTI11GcdFunction@Base 3.2.0
 _ZTI11HexFunction@Base 3.2.0
 _ZTI11IntFunction@Base 3.2.0
 _ZTI11LcmFunction@Base 3.2.0
 _ZTI11LogFunction@Base 3.2.0
 _ZTI11MaxFunction@Base 3.2.0
 _ZTI11MinFunction@Base 3.2.0
 _ZTI11ModFunction@Base 3.2.0
 _ZTI11NowVariable@Base 3.2.0
 _ZTI11OctFunction@Base 3.2.0
 _ZTI11OddFunction@Base 3.2.0
 _ZTI11RemFunction@Base 3.2.0
 _ZTI11RowFunction@Base 3.2.0
 _ZTI11ShiFunction@Base 3.2.0
 _ZTI11SinFunction@Base 3.2.0
 _ZTI11SumFunction@Base 3.2.0
 _ZTI11TanFunction@Base 3.2.0
 _ZTI11XorFunction@Base 3.2.0
 _ZTI12AcosFunction@Base 3.2.0
 _ZTI12AiryFunction@Base 3.2.0
 _ZTI12AreaFunction@Base 3.2.0
 _ZTI12AsinFunction@Base 3.2.0
 _ZTI12AtanFunction@Base 3.2.0
 _ZTI12BaseFunction@Base 3.2.0
 _ZTI12BetaFunction@Base 3.2.0
 _ZTI12BinaryPrefix@Base 3.2.0
 _ZTI12CbrtFunction@Base 3.2.0
 _ZTI12CeilFunction@Base 3.2.0
 _ZTI12CharFunction@Base 3.2.0
 _ZTI12CoshFunction@Base 3.2.0
 _ZTI12DateArgument@Base 3.2.0
 _ZTI12DateFunction@Base 3.2.0
 _ZTI12DaysFunction@Base 3.2.0
 _ZTI12ErfcFunction@Base 3.2.0
 _ZTI12EvenFunction@Base 3.2.0
 _ZTI12FileArgument@Base 3.2.0
 _ZTI12FracFunction@Base 3.2.0
 _ZTI12LoadFunction@Base 3.2.0
 _ZTI12LognFunction@Base 3.2.0
 _ZTI12MathFunction@Base 3.2.0
 _ZTI12ModeFunction@Base 3.2.0
 _ZTI12NumberPrefix@Base 3.2.0
 _ZTI12PlotFunction@Base 3.2.0
 _ZTI12RandFunction@Base 3.2.0
 _ZTI12RankFunction@Base 3.2.0
 _ZTI12RootFunction@Base 3.2.0
 _ZTI12RowsFunction@Base 3.2.0
 _ZTI12SaveFunction@Base 3.2.0
 _ZTI12SincFunction@Base 3.2.0
 _ZTI12SinhFunction@Base 3.2.0
 _ZTI12SortFunction@Base 3.2.0
 _ZTI12SqrtFunction@Base 3.2.0
 _ZTI12TanhFunction@Base 3.2.0
 _ZTI12TextArgument@Base 3.2.0
 _ZTI12TimeFunction@Base 3.2.0
 _ZTI12UnitArgument@Base 3.2.0
 _ZTI12UserFunction@Base 3.2.0
 _ZTI12WeekFunction@Base 3.2.0
 _ZTI12YearFunction@Base 3.2.0
 _ZTI12ZetaFunction@Base 3.2.0
 _ZTI13AcoshFunction@Base 3.2.0
 _ZTI13AngleArgument@Base 3.2.0
 _ZTI13AsciiFunction@Base 3.2.0
 _ZTI13AsinhFunction@Base 3.2.0
 _ZTI13Atan2Function@Base 3.2.0
 _ZTI13AtanhFunction@Base 3.2.0
 _ZTI13CoeffFunction@Base 3.2.0
 _ZTI13CompositeUnit@Base 3.2.0
 _ZTI13DecimalPrefix@Base 3.2.0
 _ZTI13DiracFunction@Base 3.2.0
 _ZTI13ErrorFunction@Base 3.2.0
 _ZTI13EulerVariable@Base 3.2.0
 _ZTI13FloorFunction@Base 3.2.0
 _ZTI13GammaFunction@Base 3.2.0
 _ZTI13KnownVariable@Base 3.2.0
 _ZTI13LimitFunction@Base 3.2.0
 _ZTI13MonthFunction@Base 3.2.0
 _ZTI13RomanFunction@Base 3.2.0
 _ZTI13RoundFunction@Base 3.2.0
 _ZTI13ShiftFunction@Base 3.2.0
 _ZTI13SolveFunction@Base 3.2.0
 _ZTI13StackFunction@Base 3.2.0
 _ZTI13TitleFunction@Base 3.2.0
 _ZTI13TodayVariable@Base 3.2.0
 _ZTI13TotalFunction@Base 3.2.0
 _ZTI13TruncFunction@Base 3.2.0
 _ZTI14BitCmpFunction@Base 3.2.0
 _ZTI14BitXorFunction@Base 3.2.0
 _ZTI14ColumnFunction@Base 3.2.0
 _ZTI14DSolveFunction@Base 3.2.0
 _ZTI14DegreeFunction@Base 3.2.0
 _ZTI14DeriveFunction@Base 3.2.0
 _ZTI14ExportFunction@Base 3.2.0
 _ZTI14ExpressionItem@Base 3.2.0
 _ZTI14IGammaFunction@Base 3.2.0
 _ZTI14IsRealFunction@Base 3.2.0
 _ZTI14LCoeffFunction@Base 3.2.0
 _ZTI14LengthFunction@Base 3.2.0
 _ZTI14LimitsFunction@Base 3.2.0
 _ZTI14MatrixArgument@Base 3.2.0
 _ZTI14MatrixFunction@Base 3.2.0
 _ZTI14NumberArgument@Base 3.2.0
 _ZTI14SelectFunction@Base 3.2.0
 _ZTI14SignumFunction@Base 3.2.0
 _ZTI14SquareFunction@Base 3.2.0
 _ZTI14TCoeffFunction@Base 3.2.0
 _ZTI14UptimeVariable@Base 3.2.0
 _ZTI14VectorArgument@Base 3.2.0
 _ZTI14VectorFunction@Base 3.2.0
 _ZTI15AddDaysFunction@Base 3.2.0
 _ZTI15AdjointFunction@Base 3.2.0
 _ZTI15BesseljFunction@Base 3.2.0
 _ZTI15BesselyFunction@Base 3.2.0
 _ZTI15BooleanArgument@Base 3.2.0
 _ZTI15CalculateThread@Base 3.2.0
 _ZTI15CatalanVariable@Base 3.2.0
 _ZTI15ColumnsFunction@Base 3.2.0
 _ZTI15DigammaFunction@Base 3.2.0
 _ZTI15DynamicVariable@Base 3.2.0
 _ZTI15ElementFunction@Base 3.2.0
 _ZTI15IntegerArgument@Base 3.2.0
 _ZTI15InverseFunction@Base 3.2.0
 _ZTI15LDegreeFunction@Base 3.2.0
 _ZTI15MessageFunction@Base 3.2.0
 _ZTI15ProcessFunction@Base 3.2.0
 _ZTI15ProductFunction@Base 3.2.0
 _ZTI15ReplaceFunction@Base 3.2.0
 _ZTI15UnknownVariable@Base 3.2.0
 _ZTI15WarningFunction@Base 3.2.0
 _ZTI15WeekdayFunction@Base 3.2.0
 _ZTI15YeardayFunction@Base 3.2.0
 _ZTI16AddYearsFunction@Base 3.2.0
 _ZTI16BinomialFunction@Base 3.2.0
 _ZTI16CofactorFunction@Base 3.2.0
 _ZTI16DateTimeFunction@Base 3.2.0
 _ZTI16ElementsFunction@Base 3.2.0
 _ZTI16FunctionArgument@Base 3.2.0
 _ZTI16FunctionFunction@Base 3.2.0
 _ZTI16HadamardFunction@Base 3.2.0
 _ZTI16IdentityFunction@Base 3.2.0
 _ZTI16IntervalFunction@Base 3.2.0
 _ZTI16IsNumberFunction@Base 3.2.0
 _ZTI16LambertWFunction@Base 3.2.0
 _ZTI16RegisterFunction@Base 3.2.0
 _ZTI16SymbolicArgument@Base 3.2.0
 _ZTI16TomorrowVariable@Base 3.2.0
 _ZTI16VariableArgument@Base 3.2.0
 _ZTI16YearFracFunction@Base 3.2.0
 _ZTI17AddMonthsFunction@Base 3.2.0
 _ZTI17ComponentFunction@Base 3.2.0
 _ZTI17CustomSumFunction@Base 3.2.0
 _ZTI17DimensionFunction@Base 3.2.0
 _ZTI17EntrywiseFunction@Base 3.2.0
 _ZTI17FactorialFunction@Base 3.2.0
 _ZTI17HeavisideFunction@Base 3.2.0
 _ZTI17IntegrateFunction@Base 3.2.0
 _ZTI17IsIntegerFunction@Base 3.2.0
 _ZTI17MagnitudeFunction@Base 3.2.0
 _ZTI17NumeratorFunction@Base 3.2.0
 _ZTI17PermanentFunction@Base 3.2.0
 _ZTI17PrecisionVariable@Base 3.2.0
 _ZTI17TimeValueFunction@Base 3.2.0
 _ZTI17TimestampFunction@Base 3.2.0
 _ZTI17TransposeFunction@Base 3.2.0
 _ZTI17YesterdayVariable@Base 3.2.0
 _ZTI18DataObjectArgument@Base 3.2.0
 _ZTI18IsRationalFunction@Base 3.2.0
 _ZTI18LunarPhaseFunction@Base 3.2.0
 _ZTI18PercentileFunction@Base 3.2.0
 _ZTI18StripUnitsFunction@Base 3.2.0
 _ZTI19AliasUnit_Composite@Base 3.2.0
 _ZTI19ConcatenateFunction@Base 3.2.0
 _ZTI19DenominatorFunction@Base 3.2.0
 _ZTI19DeterminantFunction@Base 3.2.0
 _ZTI19UncertaintyFunction@Base 3.2.0
 _ZTI20DataPropertyArgument@Base 3.2.0
 _ZTI20MergeVectorsFunction@Base 3.2.0
 _ZTI21CircularShiftFunction@Base 3.2.0
 _ZTI21ProcessMatrixFunction@Base 3.2.0
 _ZTI21SolveMultipleFunction@Base 3.2.0
 _ZTI22ExpressionItemArgument@Base 3.2.0
 _ZTI22GenerateVectorFunction@Base 3.2.0
 _ZTI22MatrixToVectorFunction@Base 3.2.0
 _ZTI22MultiFactorialFunction@Base 3.2.0
 _ZTI22NextLunarPhaseFunction@Base 3.2.0
 _ZTI22PolynomialUnitFunction@Base 3.2.0
 _ZTI22RepresentsRealFunction@Base 3.2.0
 _ZTI23DoubleFactorialFunction@Base 3.2.0
 _ZTI23TimestampToDateFunction@Base 3.2.0
 _ZTI24RepresentsNumberFunction@Base 3.2.0
 _ZTI25PolynomialContentFunction@Base 3.2.0
 _ZTI25RepresentsIntegerFunction@Base 3.2.0
 _ZTI26PolynomialPrimpartFunction@Base 3.2.0
 _ZTI26RepresentsRationalFunction@Base 3.2.0
 _ZTI33RadiansToDefaultAngleUnitFunction@Base 3.2.0
 _ZTI4Unit@Base 3.2.0
 _ZTI6Number@Base 3.2.0
 _ZTI6Prefix@Base 3.2.0
 _ZTI6Thread@Base 3.2.0
 _ZTI7DataSet@Base 3.2.0
 _ZTI8Argument@Base 3.2.0
 _ZTI8Variable@Base 3.2.0
 _ZTI9AliasUnit@Base 3.2.0
 _ZTI9EVariable@Base 3.2.0
 _ZTS10Calculator@Base 3.2.0
 _ZTS10CiFunction@Base 3.2.0
 _ZTS10EiFunction@Base 3.2.0
 _ZTS10IFFunction@Base 3.2.0
 _ZTS10ImFunction@Base 3.2.0
 _ZTS10LiFunction@Base 3.2.0
 _ZTS10PiVariable@Base 3.2.0
 _ZTS10ReFunction@Base 3.2.0
 _ZTS10SiFunction@Base 3.2.0
 _ZTS10liFunction@Base 3.2.0
 _ZTS11AbsFunction@Base 3.2.0
 _ZTS11ArgFunction@Base 3.2.0
 _ZTS11ArgumentSet@Base 3.2.0
 _ZTS11BinFunction@Base 3.2.0
 _ZTS11ChiFunction@Base 3.2.0
 _ZTS11CosFunction@Base 3.2.0
 _ZTS11DayFunction@Base 3.2.0
 _ZTS11ErfFunction@Base 3.2.0
 _ZTS11ExpFunction@Base 3.2.0
 _ZTS11ForFunction@Base 3.2.0
 _ZTS11GcdFunction@Base 3.2.0
 _ZTS11HexFunction@Base 3.2.0
 _ZTS11IntFunction@Base 3.2.0
 _ZTS11LcmFunction@Base 3.2.0
 _ZTS11LogFunction@Base 3.2.0
 _ZTS11MaxFunction@Base 3.2.0
 _ZTS11MinFunction@Base 3.2.0
 _ZTS11ModFunction@Base 3.2.0
 _ZTS11NowVariable@Base 3.2.0
 _ZTS11OctFunction@Base 3.2.0
 _ZTS11OddFunction@Base 3.2.0
 _ZTS11RemFunction@Base 3.2.0
 _ZTS11RowFunction@Base 3.2.0
 _ZTS11ShiFunction@Base 3.2.0
 _ZTS11SinFunction@Base 3.2.0
 _ZTS11SumFunction@Base 3.2.0
 _ZTS11TanFunction@Base 3.2.0
 _ZTS11XorFunction@Base 3.2.0
 _ZTS12AcosFunction@Base 3.2.0
 _ZTS12AiryFunction@Base 3.2.0
 _ZTS12AreaFunction@Base 3.2.0
 _ZTS12AsinFunction@Base 3.2.0
 _ZTS12AtanFunction@Base 3.2.0
 _ZTS12BaseFunction@Base 3.2.0
 _ZTS12BetaFunction@Base 3.2.0
 _ZTS12BinaryPrefix@Base 3.2.0
 _ZTS12CbrtFunction@Base 3.2.0
 _ZTS12CeilFunction@Base 3.2.0
 _ZTS12CharFunction@Base 3.2.0
 _ZTS12CoshFunction@Base 3.2.0
 _ZTS12DateArgument@Base 3.2.0
 _ZTS12DateFunction@Base 3.2.0
 _ZTS12DaysFunction@Base 3.2.0
 _ZTS12ErfcFunction@Base 3.2.0
 _ZTS12EvenFunction@Base 3.2.0
 _ZTS12FileArgument@Base 3.2.0
 _ZTS12FracFunction@Base 3.2.0
 _ZTS12LoadFunction@Base 3.2.0
 _ZTS12LognFunction@Base 3.2.0
 _ZTS12MathFunction@Base 3.2.0
 _ZTS12ModeFunction@Base 3.2.0
 _ZTS12NumberPrefix@Base 3.2.0
 _ZTS12PlotFunction@Base 3.2.0
 _ZTS12RandFunction@Base 3.2.0
 _ZTS12RankFunction@Base 3.2.0
 _ZTS12RootFunction@Base 3.2.0
 _ZTS12RowsFunction@Base 3.2.0
 _ZTS12SaveFunction@Base 3.2.0
 _ZTS12SincFunction@Base 3.2.0
 _ZTS12SinhFunction@Base 3.2.0
 _ZTS12SortFunction@Base 3.2.0
 _ZTS12SqrtFunction@Base 3.2.0
 _ZTS12TanhFunction@Base 3.2.0
 _ZTS12TextArgument@Base 3.2.0
 _ZTS12TimeFunction@Base 3.2.0
 _ZTS12UnitArgument@Base 3.2.0
 _ZTS12UserFunction@Base 3.2.0
 _ZTS12WeekFunction@Base 3.2.0
 _ZTS12YearFunction@Base 3.2.0
 _ZTS12ZetaFunction@Base 3.2.0
 _ZTS13AcoshFunction@Base 3.2.0
 _ZTS13AngleArgument@Base 3.2.0
 _ZTS13AsciiFunction@Base 3.2.0
 _ZTS13AsinhFunction@Base 3.2.0
 _ZTS13Atan2Function@Base 3.2.0
 _ZTS13AtanhFunction@Base 3.2.0
 _ZTS13CoeffFunction@Base 3.2.0
 _ZTS13CompositeUnit@Base 3.2.0
 _ZTS13DecimalPrefix@Base 3.2.0
 _ZTS13DiracFunction@Base 3.2.0
 _ZTS13ErrorFunction@Base 3.2.0
 _ZTS13EulerVariable@Base 3.2.0
 _ZTS13FloorFunction@Base 3.2.0
 _ZTS13GammaFunction@Base 3.2.0
 _ZTS13KnownVariable@Base 3.2.0
 _ZTS13LimitFunction@Base 3.2.0
 _ZTS13MonthFunction@Base 3.2.0
 _ZTS13RomanFunction@Base 3.2.0
 _ZTS13RoundFunction@Base 3.2.0
 _ZTS13ShiftFunction@Base 3.2.0
 _ZTS13SolveFunction@Base 3.2.0
 _ZTS13StackFunction@Base 3.2.0
 _ZTS13TitleFunction@Base 3.2.0
 _ZTS13TodayVariable@Base 3.2.0
 _ZTS13TotalFunction@Base 3.2.0
 _ZTS13TruncFunction@Base 3.2.0
 _ZTS14BitCmpFunction@Base 3.2.0
 _ZTS14BitXorFunction@Base 3.2.0
 _ZTS14ColumnFunction@Base 3.2.0
 _ZTS14DSolveFunction@Base 3.2.0
 _ZTS14DegreeFunction@Base 3.2.0
 _ZTS14DeriveFunction@Base 3.2.0
 _ZTS14ExportFunction@Base 3.2.0
 _ZTS14ExpressionItem@Base 3.2.0
 _ZTS14IGammaFunction@Base 3.2.0
 _ZTS14IsRealFunction@Base 3.2.0
 _ZTS14LCoeffFunction@Base 3.2.0
 _ZTS14LengthFunction@Base 3.2.0
 _ZTS14LimitsFunction@Base 3.2.0
 _ZTS14MatrixArgument@Base 3.2.0
 _ZTS14MatrixFunction@Base 3.2.0
 _ZTS14NumberArgument@Base 3.2.0
 _ZTS14SelectFunction@Base 3.2.0
 _ZTS14SignumFunction@Base 3.2.0
 _ZTS14SquareFunction@Base 3.2.0
 _ZTS14TCoeffFunction@Base 3.2.0
 _ZTS14UptimeVariable@Base 3.2.0
 _ZTS14VectorArgument@Base 3.2.0
 _ZTS14VectorFunction@Base 3.2.0
 _ZTS15AddDaysFunction@Base 3.2.0
 _ZTS15AdjointFunction@Base 3.2.0
 _ZTS15BesseljFunction@Base 3.2.0
 _ZTS15BesselyFunction@Base 3.2.0
 _ZTS15BooleanArgument@Base 3.2.0
 _ZTS15CalculateThread@Base 3.2.0
 _ZTS15CatalanVariable@Base 3.2.0
 _ZTS15ColumnsFunction@Base 3.2.0
 _ZTS15DigammaFunction@Base 3.2.0
 _ZTS15DynamicVariable@Base 3.2.0
 _ZTS15ElementFunction@Base 3.2.0
 _ZTS15IntegerArgument@Base 3.2.0
 _ZTS15InverseFunction@Base 3.2.0
 _ZTS15LDegreeFunction@Base 3.2.0
 _ZTS15MessageFunction@Base 3.2.0
 _ZTS15ProcessFunction@Base 3.2.0
 _ZTS15ProductFunction@Base 3.2.0
 _ZTS15ReplaceFunction@Base 3.2.0
 _ZTS15UnknownVariable@Base 3.2.0
 _ZTS15WarningFunction@Base 3.2.0
 _ZTS15WeekdayFunction@Base 3.2.0
 _ZTS15YeardayFunction@Base 3.2.0
 _ZTS16AddYearsFunction@Base 3.2.0
 _ZTS16BinomialFunction@Base 3.2.0
 _ZTS16CofactorFunction@Base 3.2.0
 _ZTS16DateTimeFunction@Base 3.2.0
 _ZTS16ElementsFunction@Base 3.2.0
 _ZTS16FunctionArgument@Base 3.2.0
 _ZTS16FunctionFunction@Base 3.2.0
 _ZTS16HadamardFunction@Base 3.2.0
 _ZTS16IdentityFunction@Base 3.2.0
 _ZTS16IntervalFunction@Base 3.2.0
 _ZTS16IsNumberFunction@Base 3.2.0
 _ZTS16LambertWFunction@Base 3.2.0
 _ZTS16RegisterFunction@Base 3.2.0
 _ZTS16SymbolicArgument@Base 3.2.0
 _ZTS16TomorrowVariable@Base 3.2.0
 _ZTS16VariableArgument@Base 3.2.0
 _ZTS16YearFracFunction@Base 3.2.0
 _ZTS17AddMonthsFunction@Base 3.2.0
 _ZTS17ComponentFunction@Base 3.2.0
 _ZTS17CustomSumFunction@Base 3.2.0
 _ZTS17DimensionFunction@Base 3.2.0
 _ZTS17EntrywiseFunction@Base 3.2.0
 _ZTS17FactorialFunction@Base 3.2.0
 _ZTS17HeavisideFunction@Base 3.2.0
 _ZTS17IntegrateFunction@Base 3.2.0
 _ZTS17IsIntegerFunction@Base 3.2.0
 _ZTS17MagnitudeFunction@Base 3.2.0
 _ZTS17NumeratorFunction@Base 3.2.0
 _ZTS17PermanentFunction@Base 3.2.0
 _ZTS17PrecisionVariable@Base 3.2.0
 _ZTS17TimeValueFunction@Base 3.2.0
 _ZTS17TimestampFunction@Base 3.2.0
 _ZTS17TransposeFunction@Base 3.2.0
 _ZTS17YesterdayVariable@Base 3.2.0
 _ZTS18DataObjectArgument@Base 3.2.0
 _ZTS18IsRationalFunction@Base 3.2.0
 _ZTS18LunarPhaseFunction@Base 3.2.0
 _ZTS18PercentileFunction@Base 3.2.0
 _ZTS18StripUnitsFunction@Base 3.2.0
 _ZTS19AliasUnit_Composite@Base 3.2.0
 _ZTS19ConcatenateFunction@Base 3.2.0
 _ZTS19DenominatorFunction@Base 3.2.0
 _ZTS19DeterminantFunction@Base 3.2.0
 _ZTS19UncertaintyFunction@Base 3.2.0
 _ZTS20DataPropertyArgument@Base 3.2.0
 _ZTS20MergeVectorsFunction@Base 3.2.0
 _ZTS21CircularShiftFunction@Base 3.2.0
 _ZTS21ProcessMatrixFunction@Base 3.2.0
 _ZTS21SolveMultipleFunction@Base 3.2.0
 _ZTS22ExpressionItemArgument@Base 3.2.0
 _ZTS22GenerateVectorFunction@Base 3.2.0
 _ZTS22MatrixToVectorFunction@Base 3.2.0
 _ZTS22MultiFactorialFunction@Base 3.2.0
 _ZTS22NextLunarPhaseFunction@Base 3.2.0
 _ZTS22PolynomialUnitFunction@Base 3.2.0
 _ZTS22RepresentsRealFunction@Base 3.2.0
 _ZTS23DoubleFactorialFunction@Base 3.2.0
 _ZTS23TimestampToDateFunction@Base 3.2.0
 _ZTS24RepresentsNumberFunction@Base 3.2.0
 _ZTS25PolynomialContentFunction@Base 3.2.0
 _ZTS25RepresentsIntegerFunction@Base 3.2.0
 _ZTS26PolynomialPrimpartFunction@Base 3.2.0
 _ZTS26RepresentsRationalFunction@Base 3.2.0
 _ZTS33RadiansToDefaultAngleUnitFunction@Base 3.2.0
 _ZTS4Unit@Base 3.2.0
 _ZTS6Number@Base 3.2.0
 _ZTS6Prefix@Base 3.2.0
 _ZTS6Thread@Base 3.2.0
 _ZTS7DataSet@Base 3.2.0
 _ZTS8Argument@Base 3.2.0
 _ZTS8Variable@Base 3.2.0
 _ZTS9AliasUnit@Base 3.2.0
 _ZTS9EVariable@Base 3.2.0
 _ZTV10Calculator@Base 3.2.0
 _ZTV10CiFunction@Base 3.2.0
 _ZTV10EiFunction@Base 3.2.0
 _ZTV10IFFunction@Base 3.2.0
 _ZTV10ImFunction@Base 3.2.0
 _ZTV10LiFunction@Base 3.2.0
 _ZTV10PiVariable@Base 3.2.0
 _ZTV10ReFunction@Base 3.2.0
 _ZTV10SiFunction@Base 3.2.0
 _ZTV10liFunction@Base 3.2.0
 _ZTV11AbsFunction@Base 3.2.0
 _ZTV11ArgFunction@Base 3.2.0
 _ZTV11ArgumentSet@Base 3.2.0
 _ZTV11BinFunction@Base 3.2.0
 _ZTV11ChiFunction@Base 3.2.0
 _ZTV11CosFunction@Base 3.2.0
 _ZTV11DayFunction@Base 3.2.0
 _ZTV11ErfFunction@Base 3.2.0
 _ZTV11ExpFunction@Base 3.2.0
 _ZTV11ForFunction@Base 3.2.0
 _ZTV11GcdFunction@Base 3.2.0
 _ZTV11HexFunction@Base 3.2.0
 _ZTV11IntFunction@Base 3.2.0
 _ZTV11LcmFunction@Base 3.2.0
 _ZTV11LogFunction@Base 3.2.0
 _ZTV11MaxFunction@Base 3.2.0
 _ZTV11MinFunction@Base 3.2.0
 _ZTV11ModFunction@Base 3.2.0
 _ZTV11NowVariable@Base 3.2.0
 _ZTV11OctFunction@Base 3.2.0
 _ZTV11OddFunction@Base 3.2.0
 _ZTV11RemFunction@Base 3.2.0
 _ZTV11RowFunction@Base 3.2.0
 _ZTV11ShiFunction@Base 3.2.0
 _ZTV11SinFunction@Base 3.2.0
 _ZTV11SumFunction@Base 3.2.0
 _ZTV11TanFunction@Base 3.2.0
 _ZTV11XorFunction@Base 3.2.0
 _ZTV12AcosFunction@Base 3.2.0
 _ZTV12AiryFunction@Base 3.2.0
 _ZTV12AreaFunction@Base 3.2.0
 _ZTV12AsinFunction@Base 3.2.0
 _ZTV12AtanFunction@Base 3.2.0
 _ZTV12BaseFunction@Base 3.2.0
 _ZTV12BetaFunction@Base 3.2.0
 _ZTV12BinaryPrefix@Base 3.2.0
 _ZTV12CbrtFunction@Base 3.2.0
 _ZTV12CeilFunction@Base 3.2.0
 _ZTV12CharFunction@Base 3.2.0
 _ZTV12CoshFunction@Base 3.2.0
 _ZTV12DateArgument@Base 3.2.0
 _ZTV12DateFunction@Base 3.2.0
 _ZTV12DaysFunction@Base 3.2.0
 _ZTV12ErfcFunction@Base 3.2.0
 _ZTV12EvenFunction@Base 3.2.0
 _ZTV12FileArgument@Base 3.2.0
 _ZTV12FracFunction@Base 3.2.0
 _ZTV12LoadFunction@Base 3.2.0
 _ZTV12LognFunction@Base 3.2.0
 _ZTV12MathFunction@Base 3.2.0
 _ZTV12ModeFunction@Base 3.2.0
 _ZTV12NumberPrefix@Base 3.2.0
 _ZTV12PlotFunction@Base 3.2.0
 _ZTV12RandFunction@Base 3.2.0
 _ZTV12RankFunction@Base 3.2.0
 _ZTV12RootFunction@Base 3.2.0
 _ZTV12RowsFunction@Base 3.2.0
 _ZTV12SaveFunction@Base 3.2.0
 _ZTV12SincFunction@Base 3.2.0
 _ZTV12SinhFunction@Base 3.2.0
 _ZTV12SortFunction@Base 3.2.0
 _ZTV12SqrtFunction@Base 3.2.0
 _ZTV12TanhFunction@Base 3.2.0
 _ZTV12TextArgument@Base 3.2.0
 _ZTV12TimeFunction@Base 3.2.0
 _ZTV12UnitArgument@Base 3.2.0
 _ZTV12UserFunction@Base 3.2.0
 _ZTV12WeekFunction@Base 3.2.0
 _ZTV12YearFunction@Base 3.2.0
 _ZTV12ZetaFunction@Base 3.2.0
 _ZTV13AcoshFunction@Base 3.2.0
 _ZTV13AngleArgument@Base 3.2.0
 _ZTV13AsciiFunction@Base 3.2.0
 _ZTV13AsinhFunction@Base 3.2.0
 _ZTV13Atan2Function@Base 3.2.0
 _ZTV13AtanhFunction@Base 3.2.0
 _ZTV13CoeffFunction@Base 3.2.0
 _ZTV13CompositeUnit@Base 3.2.0
 _ZTV13DecimalPrefix@Base 3.2.0
 _ZTV13DiracFunction@Base 3.2.0
 _ZTV13ErrorFunction@Base 3.2.0
 _ZTV13EulerVariable@Base 3.2.0
 _ZTV13FloorFunction@Base 3.2.0
 _ZTV13GammaFunction@Base 3.2.0
 _ZTV13KnownVariable@Base 3.2.0
 _ZTV13LimitFunction@Base 3.2.0
 _ZTV13MonthFunction@Base 3.2.0
 _ZTV13RomanFunction@Base 3.2.0
 _ZTV13RoundFunction@Base 3.2.0
 _ZTV13ShiftFunction@Base 3.2.0
 _ZTV13SolveFunction@Base 3.2.0
 _ZTV13StackFunction@Base 3.2.0
 _ZTV13TitleFunction@Base 3.2.0
 _ZTV13TodayVariable@Base 3.2.0
 _ZTV13TotalFunction@Base 3.2.0
 _ZTV13TruncFunction@Base 3.2.0
 _ZTV14BitCmpFunction@Base 3.2.0
 _ZTV14BitXorFunction@Base 3.2.0
 _ZTV14ColumnFunction@Base 3.2.0
 _ZTV14DSolveFunction@Base 3.2.0
 _ZTV14DegreeFunction@Base 3.2.0
 _ZTV14DeriveFunction@Base 3.2.0
 _ZTV14ExportFunction@Base 3.2.0
 _ZTV14ExpressionItem@Base 3.2.0
 _ZTV14IGammaFunction@Base 3.2.0
 _ZTV14IsRealFunction@Base 3.2.0
 _ZTV14LCoeffFunction@Base 3.2.0
 _ZTV14LengthFunction@Base 3.2.0
 _ZTV14LimitsFunction@Base 3.2.0
 _ZTV14MatrixArgument@Base 3.2.0
 _ZTV14MatrixFunction@Base 3.2.0
 _ZTV14NumberArgument@Base 3.2.0
 _ZTV14SelectFunction@Base 3.2.0
 _ZTV14SignumFunction@Base 3.2.0
 _ZTV14SquareFunction@Base 3.2.0
 _ZTV14TCoeffFunction@Base 3.2.0
 _ZTV14UptimeVariable@Base 3.2.0
 _ZTV14VectorArgument@Base 3.2.0
 _ZTV14VectorFunction@Base 3.2.0
 _ZTV15AddDaysFunction@Base 3.2.0
 _ZTV15AdjointFunction@Base 3.2.0
 _ZTV15BesseljFunction@Base 3.2.0
 _ZTV15BesselyFunction@Base 3.2.0
 _ZTV15BooleanArgument@Base 3.2.0
 _ZTV15CalculateThread@Base 3.2.0
 _ZTV15CatalanVariable@Base 3.2.0
 _ZTV15ColumnsFunction@Base 3.2.0
 _ZTV15DigammaFunction@Base 3.2.0
 _ZTV15DynamicVariable@Base 3.2.0
 _ZTV15ElementFunction@Base 3.2.0
 _ZTV15IntegerArgument@Base 3.2.0
 _ZTV15InverseFunction@Base 3.2.0
 _ZTV15LDegreeFunction@Base 3.2.0
 _ZTV15MessageFunction@Base 3.2.0
 _ZTV15ProcessFunction@Base 3.2.0
 _ZTV15ProductFunction@Base 3.2.0
 _ZTV15ReplaceFunction@Base 3.2.0
 _ZTV15UnknownVariable@Base 3.2.0
 _ZTV15WarningFunction@Base 3.2.0
 _ZTV15WeekdayFunction@Base 3.2.0
 _ZTV15YeardayFunction@Base 3.2.0
 _ZTV16AddYearsFunction@Base 3.2.0
 _ZTV16BinomialFunction@Base 3.2.0
 _ZTV16CofactorFunction@Base 3.2.0
 _ZTV16DateTimeFunction@Base 3.2.0
 _ZTV16ElementsFunction@Base 3.2.0
 _ZTV16FunctionArgument@Base 3.2.0
 _ZTV16FunctionFunction@Base 3.2.0
 _ZTV16HadamardFunction@Base 3.2.0
 _ZTV16IdentityFunction@Base 3.2.0
 _ZTV16IntervalFunction@Base 3.2.0
 _ZTV16IsNumberFunction@Base 3.2.0
 _ZTV16LambertWFunction@Base 3.2.0
 _ZTV16RegisterFunction@Base 3.2.0
 _ZTV16SymbolicArgument@Base 3.2.0
 _ZTV16TomorrowVariable@Base 3.2.0
 _ZTV16VariableArgument@Base 3.2.0
 _ZTV16YearFracFunction@Base 3.2.0
 _ZTV17AddMonthsFunction@Base 3.2.0
 _ZTV17ComponentFunction@Base 3.2.0
 _ZTV17CustomSumFunction@Base 3.2.0
 _ZTV17DimensionFunction@Base 3.2.0
 _ZTV17EntrywiseFunction@Base 3.2.0
 _ZTV17FactorialFunction@Base 3.2.0
 _ZTV17HeavisideFunction@Base 3.2.0
 _ZTV17IntegrateFunction@Base 3.2.0
 _ZTV17IsIntegerFunction@Base 3.2.0
 _ZTV17MagnitudeFunction@Base 3.2.0
 _ZTV17NumeratorFunction@Base 3.2.0
 _ZTV17PermanentFunction@Base 3.2.0
 _ZTV17PrecisionVariable@Base 3.2.0
 _ZTV17TimeValueFunction@Base 3.2.0
 _ZTV17TimestampFunction@Base 3.2.0
 _ZTV17TransposeFunction@Base 3.2.0
 _ZTV17YesterdayVariable@Base 3.2.0
 _ZTV18DataObjectArgument@Base 3.2.0
 _ZTV18IsRationalFunction@Base 3.2.0
 _ZTV18LunarPhaseFunction@Base 3.2.0
 _ZTV18PercentileFunction@Base 3.2.0
 _ZTV18StripUnitsFunction@Base 3.2.0
 _ZTV19AliasUnit_Composite@Base 3.2.0
 _ZTV19ConcatenateFunction@Base 3.2.0
 _ZTV19DenominatorFunction@Base 3.2.0
 _ZTV19DeterminantFunction@Base 3.2.0
 _ZTV19UncertaintyFunction@Base 3.2.0
 _ZTV20DataPropertyArgument@Base 3.2.0
 _ZTV20MergeVectorsFunction@Base 3.2.0
 _ZTV21CircularShiftFunction@Base 3.2.0
 _ZTV21ProcessMatrixFunction@Base 3.2.0
 _ZTV21SolveMultipleFunction@Base 3.2.0
 _ZTV22ExpressionItemArgument@Base 3.2.0
 _ZTV22GenerateVectorFunction@Base 3.2.0
 _ZTV22MatrixToVectorFunction@Base 3.2.0
 _ZTV22MultiFactorialFunction@Base 3.2.0
 _ZTV22NextLunarPhaseFunction@Base 3.2.0
 _ZTV22PolynomialUnitFunction@Base 3.2.0
 _ZTV22RepresentsRealFunction@Base 3.2.0
 _ZTV23DoubleFactorialFunction@Base 3.2.0
 _ZTV23TimestampToDateFunction@Base 3.2.0
 _ZTV24RepresentsNumberFunction@Base 3.2.0
 _ZTV25PolynomialContentFunction@Base 3.2.0
 _ZTV25RepresentsIntegerFunction@Base 3.2.0
 _ZTV26PolynomialPrimpartFunction@Base 3.2.0
 _ZTV26RepresentsRationalFunction@Base 3.2.0
 _ZTV33RadiansToDefaultAngleUnitFunction@Base 3.2.0
 _ZTV4Unit@Base 3.2.0
 _ZTV6Number@Base 3.2.0
 _ZTV6Prefix@Base 3.2.0
 _ZTV6Thread@Base 3.2.0
 _ZTV7DataSet@Base 3.2.0
 _ZTV8Argument@Base 3.2.0
 _ZTV8Variable@Base 3.2.0
 _ZTV9AliasUnit@Base 3.2.0
 _ZTV9EVariable@Base 3.2.0
 _ZlsRSoRK13MathStructure@Base 3.2.0
 _ZlsRSoRK6Number@Base 3.2.0
 buffer@Base 3.2.0
 calculator@Base 3.2.0
 empty_expression_name@Base 3.2.0
 internal_signs@Base 3.2.0
 m_empty_matrix@Base 3.2.0
 m_empty_vector@Base 3.2.0
 m_minus_one@Base 3.2.0
 m_one@Base 3.2.0
 m_one_i@Base 3.2.0
 m_undefined@Base 3.2.0
 m_zero@Base 3.2.0
 no_evaluation@Base 3.2.0
 nr_e@Base 3.2.0
 nr_half@Base 3.2.0
 nr_minus_half@Base 3.2.0
 nr_minus_i@Base 3.2.0
 nr_minus_inf@Base 3.2.0
 nr_minus_one@Base 3.2.0
 nr_one@Base 3.2.0
 nr_one_i@Base 3.2.0
 nr_plus_inf@Base 3.2.0
 nr_three@Base 3.2.0
 nr_two@Base 3.2.0
 nr_zero@Base 3.2.0
 randstate@Base 3.2.0
 ucm@Base 3.2.0
